ccopy_reg
_reconstructor
p1
(chybrid
Hybrid
p2
c__builtin__
object
p3
NtRp4
(dp5
S'_rhs_to_unary_pcfg_production'
p6
ccollections
defaultdict
p7
(c__builtin__
set
p8
tRp9
VA
g8
((lp10
g1
(cnltk.grammar
Production
p11
g3
NtRp12
(dp13
S'_rhs'
p14
(VA
tp15
sS'_hash'
p16
I-6031013813573080186
sS'_lhs'
p17
g1
(cnltk.grammar
Nonterminal
p18
g3
NtRp19
(dp20
S'_symbol'
p21
VNucleus
p22
sg16
I-2187922955892876620
sbsbatRp23
sVB
g8
((lp24
g1
(g11
g3
NtRp25
(dp26
g14
(VB
tp27
sg16
I-4788177378572342785
sg17
g1
(g18
g3
NtRp28
(dp29
g21
VOnset
p30
sg16
I386175822344591504
sbsbatRp31
sg1
(g18
g3
NtRp32
(dp33
g21
VWord
p34
sg16
I-7487829120334232892
sbg8
((ltRp35
sg1
(g18
g3
NtRp36
(dp37
g21
VSyl
p38
sg16
I-1228887169348443217
sbg8
((lp39
g1
(g11
g3
NtRp40
(dp41
g14
(g36
tp42
sg16
I1457082601528794552
sg17
g1
(g18
g3
NtRp43
(dp44
g21
VSyls
p45
sg16
I-5659307568355774861
sbsbatRp46
sg28
g8
((ltRp47
sg1
(g18
g3
NtRp48
(dp49
g21
VSyls
p50
sg16
I-5659307568355774861
sbg8
((lp51
g1
(g11
g3
NtRp52
(dp53
g14
(g48
tp54
sg16
I3838246743812645699
sg17
g32
sbatRp55
sg1
(g18
g3
NtRp56
(dp57
g21
VNucleus
p58
sg16
I-2187922955892876620
sbg8
((lp59
g1
(g11
g3
NtRp60
(dp61
g14
(g56
tp62
sg16
I7092314276867068909
sg17
g1
(g18
g3
NtRp63
(dp64
g21
VSyl
p65
sg16
I-1228887169348443217
sbsbatRp66
ssS'_lhs_rhs_to_active_adapted_production'
p67
g7
(g8
tRp68
(g32
(S'B'
S'A'
S'A'
S'B'
ttp69
g8
((ltRp70
s(g32
(S'A'
S'B'
S'A'
S'B'
S'A'
S'B'
S'A'
ttp71
g8
((lp72
g1
(cutil
AdaptedProduction
p73
g3
NtRp74
(dp75
g14
(S'A'
S'B'
S'A'
S'B'
S'A'
S'B'
S'A'
tp76
sg16
I-2225830649029521299
sg17
g32
sS'_productions'
p77
(lp78
g52
ag1
(g11
g3
NtRp79
(dp80
g14
(g1
(g18
g3
NtRp81
(dp82
g21
VSyl
p83
sg16
I-1228887169348443217
sbg1
(g18
g3
NtRp84
(dp85
g21
VSyls
p86
sg16
I-5659307568355774861
sbtp87
sg16
I-1069894011082058221
sg17
g1
(g18
g3
NtRp88
(dp89
g21
VSyls
p90
sg16
I-5659307568355774861
sbsbag60
ag12
ag79
ag1
(g11
g3
NtRp91
(dp92
g14
(g1
(g18
g3
NtRp93
(dp94
g21
VOnset
p95
sg16
I386175822344591504
sbg1
(g18
g3
NtRp96
(dp97
g21
VNucleus
p98
sg16
I-2187922955892876620
sbtp99
sg16
I-4580647145546379003
sg17
g1
(g18
g3
NtRp100
(dp101
g21
VSyl
p102
sg16
I-1228887169348443217
sbsbag25
ag12
ag79
ag91
ag25
ag12
ag40
ag91
ag25
ag12
asbatRp103
s(g32
(S'B'
S'A'
S'B'
ttp104
g8
((ltRp105
s(g32
(S'A'
S'A'
S'A'
S'B'
S'A'
ttp106
g8
((lp107
g1
(g73
g3
NtRp108
(dp109
g14
(S'A'
S'A'
S'A'
S'B'
S'A'
tp110
sg16
I-1076558265529941029
sg17
g32
sg77
(lp111
g52
ag79
ag60
ag12
ag79
ag60
ag12
ag79
ag60
ag12
ag40
ag91
ag25
ag12
asbatRp112
s(g32
(S'A'
S'A'
S'A'
S'A'
S'A'
ttp113
g8
((lp114
g1
(g73
g3
NtRp115
(dp116
g14
(S'A'
S'A'
S'A'
S'A'
S'A'
tp117
sg16
I-4205258479537446660
sg17
g32
sg77
(lp118
g52
ag79
ag60
ag12
ag79
ag60
ag12
ag79
ag60
ag12
ag79
ag60
ag12
ag40
ag60
ag12
asbatRp119
s(g32
(S'A'
S'A'
S'A'
S'A'
ttp120
g8
((lp121
g1
(g73
g3
NtRp122
(dp123
g14
(S'A'
S'A'
S'A'
S'A'
tp124
sg16
I-1325365498446268084
sg17
g32
sg77
(lp125
g52
ag79
ag60
ag12
ag79
ag60
ag12
ag79
ag60
ag12
ag40
ag60
ag12
asbatRp126
s(g32
(S'A'
S'A'
S'A'
S'A'
S'B'
ttp127
g8
((ltRp128
s(g32
(S'A'
S'A'
S'A'
S'B'
S'A'
S'B'
S'A'
ttp129
g8
((lp130
g1
(g73
g3
NtRp131
(dp132
g14
(S'A'
S'A'
S'A'
S'B'
S'A'
S'B'
S'A'
tp133
sg16
I4172461770188130802
sg17
g32
sg77
(lp134
g52
ag79
ag60
ag12
ag79
ag60
ag12
ag79
ag60
ag12
ag79
ag91
ag25
ag12
ag40
ag91
ag25
ag12
asbatRp135
s(g32
(S'A'
S'A'
S'B'
S'A'
ttp136
g8
((lp137
g1
(g73
g3
NtRp138
(dp139
g14
(S'A'
S'A'
S'B'
S'A'
tp140
sg16
I-2316844505522669525
sg17
g32
sg77
(lp141
g52
ag79
ag60
ag12
ag79
ag60
ag12
ag40
ag91
ag25
ag12
asbatRp142
s(g32
(S'B'
S'A'
S'A'
S'A'
S'A'
S'B'
ttp143
g8
((ltRp144
s(g32
(S'B'
S'A'
S'A'
S'B'
S'A'
S'A'
S'A'
ttp145
g8
((lp146
g1
(g73
g3
NtRp147
(dp148
g14
(S'B'
S'A'
S'A'
S'B'
S'A'
S'A'
S'A'
tp149
sg16
I2613370209769776512
sg17
g32
sg77
(lp150
g52
ag79
ag91
ag25
ag12
ag79
ag60
ag12
ag79
ag91
ag25
ag12
ag79
ag60
ag12
ag40
ag60
ag12
asbatRp151
s(g32
(S'A'
S'A'
S'A'
S'A'
S'A'
S'A'
ttp152
g8
((lp153
g1
(g73
g3
NtRp154
(dp155
g14
(S'A'
S'A'
S'A'
S'A'
S'A'
S'A'
tp156
sg16
I-7424224077654823140
sg17
g32
sg77
(lp157
g52
ag79
ag60
ag12
ag79
ag60
ag12
ag79
ag60
ag12
ag79
ag60
ag12
ag79
ag60
ag12
ag40
ag60
ag12
asbatRp158
s(g32
(S'A'
ttp159
g8
((ltRp160
s(g32
(S'A'
S'A'
S'A'
S'B'
ttp161
g8
((ltRp162
s(g32
(S'A'
S'A'
S'A'
S'B'
S'A'
S'A'
ttp163
g8
((lp164
g1
(g73
g3
NtRp165
(dp166
g14
(S'A'
S'A'
S'A'
S'B'
S'A'
S'A'
tp167
sg16
I665966230241940149
sg17
g32
sg77
(lp168
g52
ag79
ag60
ag12
ag79
ag60
ag12
ag79
ag60
ag12
ag79
ag91
ag25
ag12
ag40
ag60
ag12
asbatRp169
s(g32
(S'B'
S'A'
S'A'
S'B'
S'A'
S'B'
ttp170
g8
((ltRp171
s(g32
(S'B'
S'A'
S'B'
S'A'
ttp172
g8
((lp173
g1
(g73
g3
NtRp174
(dp175
g14
(S'B'
S'A'
S'B'
S'A'
tp176
sg16
I8240817732820029550
sg17
g32
sg77
(lp177
g52
ag79
ag91
ag25
ag12
ag40
ag91
ag25
ag12
asbatRp178
s(g32
(S'A'
S'B'
S'A'
S'B'
S'A'
S'A'
ttp179
g8
((lp180
g1
(g73
g3
NtRp181
(dp182
g14
(S'A'
S'B'
S'A'
S'B'
S'A'
S'A'
tp183
sg16
I7456251271614574996
sg17
g32
sg77
(lp184
g52
ag79
ag60
ag12
ag79
ag91
ag25
ag12
ag79
ag91
ag25
ag12
ag40
ag60
ag12
asbatRp185
s(g32
(S'A'
S'A'
S'B'
S'A'
S'A'
ttp186
g8
((lp187
g1
(g73
g3
NtRp188
(dp189
g14
(S'A'
S'A'
S'B'
S'A'
S'A'
tp190
sg16
I-4797331791566421285
sg17
g32
sg77
(lp191
g52
ag79
ag60
ag12
ag79
ag60
ag12
ag79
ag91
ag25
ag12
ag40
ag60
ag12
asbatRp192
s(g32
(S'B'
S'A'
S'A'
ttp193
g8
((lp194
g1
(g73
g3
NtRp195
(dp196
g14
(S'B'
S'A'
S'A'
tp197
sg16
I-9186871463055856539
sg17
g32
sg77
(lp198
g52
ag79
ag91
ag25
ag12
ag40
ag60
ag12
asbatRp199
s(g32
(S'A'
S'B'
S'A'
ttp200
g8
((lp201
g1
(g73
g3
NtRp202
(dp203
g14
(S'A'
S'B'
S'A'
tp204
sg16
I-7713826496372588769
sg17
g32
sg77
(lp205
g52
ag79
ag60
ag12
ag40
ag91
ag25
ag12
asbatRp206
s(g32
(S'A'
S'B'
S'A'
S'B'
S'A'
ttp207
g8
((lp208
g1
(g73
g3
NtRp209
(dp210
g14
(S'A'
S'B'
S'A'
S'B'
S'A'
tp211
sg16
I-7608205695528014690
sg17
g32
sg77
(lp212
g52
ag79
ag60
ag12
ag79
ag91
ag25
ag12
ag40
ag91
ag25
ag12
asbatRp213
s(g32
(S'A'
S'A'
S'A'
S'B'
S'A'
S'A'
S'A'
ttp214
g8
((lp215
g1
(g73
g3
NtRp216
(dp217
g14
(S'A'
S'A'
S'A'
S'B'
S'A'
S'A'
S'A'
tp218
sg16
I5022195941642987825
sg17
g32
sg77
(lp219
g52
ag79
ag60
ag12
ag79
ag60
ag12
ag79
ag60
ag12
ag79
ag91
ag25
ag12
ag79
ag60
ag12
ag40
ag60
ag12
asbatRp220
s(g32
(S'B'
S'A'
S'B'
S'A'
S'B'
ttp221
g8
((ltRp222
s(g32
(S'A'
S'B'
S'A'
S'A'
S'B'
ttp223
g8
((ltRp224
s(g32
(S'A'
S'B'
ttp225
g8
((ltRp226
s(g32
(S'B'
S'A'
S'B'
S'A'
S'A'
ttp227
g8
((lp228
g1
(g73
g3
NtRp229
(dp230
g14
(S'B'
S'A'
S'B'
S'A'
S'A'
tp231
sg16
I5196590161345141076
sg17
g32
sg77
(lp232
g52
ag79
ag91
ag25
ag12
ag79
ag91
ag25
ag12
ag40
ag60
ag12
asbatRp233
s(g32
(S'A'
S'A'
S'B'
S'A'
S'A'
S'A'
ttp234
g8
((lp235
g1
(g73
g3
NtRp236
(dp237
g14
(S'A'
S'A'
S'B'
S'A'
S'A'
S'A'
tp238
sg16
I-3326099251008504255
sg17
g32
sg77
(lp239
g52
ag79
ag60
ag12
ag79
ag60
ag12
ag79
ag91
ag25
ag12
ag79
ag60
ag12
ag40
ag60
ag12
asbatRp240
s(g32
(S'A'
S'B'
S'A'
S'A'
S'A'
S'A'
S'A'
ttp241
g8
((lp242
g1
(g73
g3
NtRp243
(dp244
g14
(S'A'
S'B'
S'A'
S'A'
S'A'
S'A'
S'A'
tp245
sg16
I7656497927841721199
sg17
g32
sg77
(lp246
g52
ag79
ag60
ag12
ag79
ag91
ag25
ag12
ag79
ag60
ag12
ag79
ag60
ag12
ag79
ag60
ag12
ag40
ag60
ag12
asbatRp247
s(g32
(S'B'
S'A'
S'A'
S'A'
S'A'
S'B'
S'A'
ttp248
g8
((lp249
g1
(g73
g3
NtRp250
(dp251
g14
(S'B'
S'A'
S'A'
S'A'
S'A'
S'B'
S'A'
tp252
sg16
I4769111891365400310
sg17
g32
sg77
(lp253
g52
ag79
ag91
ag25
ag12
ag79
ag60
ag12
ag79
ag60
ag12
ag79
ag60
ag12
ag40
ag91
ag25
ag12
asbatRp254
s(g32
(S'A'
S'A'
S'B'
S'A'
S'B'
S'A'
S'A'
ttp255
g8
((lp256
g1
(g73
g3
NtRp257
(dp258
g14
(S'A'
S'A'
S'B'
S'A'
S'B'
S'A'
S'A'
tp259
sg16
I-1364228983069653892
sg17
g32
sg77
(lp260
g52
ag79
ag60
ag12
ag79
ag60
ag12
ag79
ag91
ag25
ag12
ag79
ag91
ag25
ag12
ag40
ag60
ag12
asbatRp261
s(g32
(S'B'
S'A'
S'B'
S'A'
S'A'
S'A'
S'A'
ttp262
g8
((lp263
g1
(g73
g3
NtRp264
(dp265
g14
(S'B'
S'A'
S'B'
S'A'
S'A'
S'A'
S'A'
tp266
sg16
I-9169649360894987816
sg17
g32
sg77
(lp267
g52
ag79
ag91
ag25
ag12
ag79
ag91
ag25
ag12
ag79
ag60
ag12
ag79
ag60
ag12
ag40
ag60
ag12
asbatRp268
s(g32
(S'A'
S'A'
S'A'
S'A'
S'B'
S'A'
S'A'
ttp269
g8
((lp270
g1
(g73
g3
NtRp271
(dp272
g14
(S'A'
S'A'
S'A'
S'A'
S'B'
S'A'
S'A'
tp273
sg16
I4459025393897511113
sg17
g32
sg77
(lp274
g52
ag79
ag60
ag12
ag79
ag60
ag12
ag79
ag60
ag12
ag79
ag60
ag12
ag79
ag91
ag25
ag12
ag40
ag60
ag12
asbatRp275
s(g32
(S'A'
S'B'
S'A'
S'A'
S'A'
S'A'
ttp276
g8
((lp277
g1
(g73
g3
NtRp278
(dp279
g14
(S'A'
S'B'
S'A'
S'A'
S'A'
S'A'
tp280
sg16
I-2536487101653917139
sg17
g32
sg77
(lp281
g52
ag79
ag60
ag12
ag79
ag91
ag25
ag12
ag79
ag60
ag12
ag79
ag60
ag12
ag40
ag60
ag12
asbatRp282
s(g32
(S'B'
S'A'
S'A'
S'A'
S'B'
S'A'
ttp283
g8
((lp284
g1
(g73
g3
NtRp285
(dp286
g14
(S'B'
S'A'
S'A'
S'A'
S'B'
S'A'
tp287
sg16
I-5320923933598762500
sg17
g32
sg77
(lp288
g52
ag79
ag91
ag25
ag12
ag79
ag60
ag12
ag79
ag60
ag12
ag40
ag91
ag25
ag12
asbatRp289
s(g32
(S'B'
S'A'
S'A'
S'A'
ttp290
g8
((lp291
g1
(g73
g3
NtRp292
(dp293
g14
(S'B'
S'A'
S'A'
S'A'
tp294
sg16
I8192998892612929273
sg17
g32
sg77
(lp295
g52
ag79
ag91
ag25
ag12
ag79
ag60
ag12
ag40
ag60
ag12
asbatRp296
s(g32
(S'A'
S'A'
S'B'
S'A'
S'A'
S'B'
ttp297
g8
((ltRp298
s(g32
(S'B'
S'A'
ttp299
g8
((lp300
g1
(g73
g3
NtRp301
(dp302
g14
(S'B'
S'A'
tp303
sg16
I-188534470611740513
sg17
g32
sg77
(lp304
g52
ag40
ag91
ag25
ag12
asbatRp305
s(g32
(S'B'
S'A'
S'B'
S'A'
S'B'
S'A'
S'A'
ttp306
g8
((lp307
g1
(g73
g3
NtRp308
(dp309
g14
(S'B'
S'A'
S'B'
S'A'
S'B'
S'A'
S'A'
tp310
sg16
I3479348714036682181
sg17
g32
sg77
(lp311
g52
ag79
ag91
ag25
ag12
ag79
ag91
ag25
ag12
ag79
ag91
ag25
ag12
ag40
ag60
ag12
asbatRp312
s(g32
(S'A'
S'A'
S'B'
S'A'
S'B'
ttp313
g8
((ltRp314
s(g32
(S'A'
S'A'
S'A'
S'A'
S'A'
S'B'
S'A'
ttp315
g8
((lp316
g1
(g73
g3
NtRp317
(dp318
g14
(S'A'
S'A'
S'A'
S'A'
S'A'
S'B'
S'A'
tp319
sg16
I-5185347396350984849
sg17
g32
sg77
(lp320
g52
ag79
ag60
ag12
ag79
ag60
ag12
ag79
ag60
ag12
ag79
ag60
ag12
ag79
ag60
ag12
ag40
ag91
ag25
ag12
asbatRp321
s(g32
(S'A'
S'B'
S'A'
S'A'
S'B'
S'A'
ttp322
g8
((lp323
g1
(g73
g3
NtRp324
(dp325
g14
(S'A'
S'B'
S'A'
S'A'
S'B'
S'A'
tp326
sg16
I7428955275051761278
sg17
g32
sg77
(lp327
g52
ag79
ag60
ag12
ag79
ag91
ag25
ag12
ag79
ag60
ag12
ag40
ag91
ag25
ag12
asbatRp328
s(g32
(S'A'
S'A'
S'A'
S'A'
S'A'
S'B'
ttp329
g8
((ltRp330
s(g32
(S'B'
S'A'
S'A'
S'B'
S'A'
S'A'
ttp331
g8
((lp332
g1
(g73
g3
NtRp333
(dp334
g14
(S'B'
S'A'
S'A'
S'B'
S'A'
S'A'
tp335
sg16
I-3998695102976582966
sg17
g32
sg77
(lp336
g52
ag79
ag91
ag25
ag12
ag79
ag60
ag12
ag79
ag91
ag25
ag12
ag40
ag60
ag12
asbatRp337
s(g32
(S'A'
S'A'
S'A'
S'B'
S'A'
S'B'
ttp338
g8
((ltRp339
s(g32
(S'B'
S'A'
S'A'
S'B'
S'A'
S'B'
S'A'
ttp340
g8
((lp341
g1
(g73
g3
NtRp342
(dp343
g14
(S'B'
S'A'
S'A'
S'B'
S'A'
S'B'
S'A'
tp344
sg16
I5836723991697047043
sg17
g32
sg77
(lp345
g52
ag79
ag91
ag25
ag12
ag79
ag60
ag12
ag79
ag91
ag25
ag12
ag40
ag91
ag25
ag12
asbatRp346
s(g32
(S'A'
S'B'
S'A'
S'A'
S'A'
ttp347
g8
((lp348
g1
(g73
g3
NtRp349
(dp350
g14
(S'A'
S'B'
S'A'
S'A'
S'A'
tp351
sg16
I6000677576711744169
sg17
g32
sg77
(lp352
g52
ag79
ag60
ag12
ag79
ag91
ag25
ag12
ag79
ag60
ag12
ag40
ag60
ag12
asbatRp353
s(g32
(S'A'
S'A'
S'A'
S'A'
S'B'
S'A'
ttp354
g8
((lp355
g1
(g73
g3
NtRp356
(dp357
g14
(S'A'
S'A'
S'A'
S'A'
S'B'
S'A'
tp358
sg16
I-5198676683665610673
sg17
g32
sg77
(lp359
g52
ag79
ag60
ag12
ag79
ag60
ag12
ag79
ag60
ag12
ag79
ag60
ag12
ag40
ag91
ag25
ag12
asbatRp360
s(g32
(S'A'
S'B'
S'A'
S'A'
S'A'
S'B'
ttp361
g8
((ltRp362
s(g32
(S'A'
S'B'
S'A'
S'B'
S'A'
S'A'
S'A'
ttp363
g8
((lp364
g1
(g73
g3
NtRp365
(dp366
g14
(S'A'
S'B'
S'A'
S'B'
S'A'
S'A'
S'A'
tp367
sg16
I-744619435474226258
sg17
g32
sg77
(lp368
g52
ag79
ag60
ag12
ag79
ag91
ag25
ag12
ag79
ag91
ag25
ag12
ag79
ag60
ag12
ag40
ag60
ag12
asbatRp369
s(g32
(S'A'
S'A'
S'B'
ttp370
g8
((ltRp371
s(g32
(S'B'
S'A'
S'A'
S'B'
S'A'
ttp372
g8
((lp373
g1
(g73
g3
NtRp374
(dp375
g14
(S'B'
S'A'
S'A'
S'B'
S'A'
tp376
sg16
I-1018841582885434284
sg17
g32
sg77
(lp377
g52
ag79
ag91
ag25
ag12
ag79
ag60
ag12
ag40
ag91
ag25
ag12
asbatRp378
s(g32
(S'A'
S'A'
S'B'
S'A'
S'A'
S'A'
S'A'
ttp379
g8
((lp380
g1
(g73
g3
NtRp381
(dp382
g14
(S'A'
S'A'
S'B'
S'A'
S'A'
S'A'
S'A'
tp383
sg16
I-8885462502842246567
sg17
g32
sg77
(lp384
g52
ag79
ag60
ag12
ag79
ag60
ag12
ag79
ag91
ag25
ag12
ag79
ag60
ag12
ag79
ag60
ag12
ag40
ag60
ag12
asbatRp385
s(g32
(S'A'
S'A'
S'B'
S'A'
S'A'
S'B'
S'A'
ttp386
g8
((lp387
g1
(g73
g3
NtRp388
(dp389
g14
(S'A'
S'A'
S'B'
S'A'
S'A'
S'B'
S'A'
tp390
sg16
I-7707489067786191238
sg17
g32
sg77
(lp391
g52
ag79
ag60
ag12
ag79
ag60
ag12
ag79
ag91
ag25
ag12
ag79
ag60
ag12
ag40
ag91
ag25
ag12
asbatRp392
s(g32
(S'B'
S'A'
S'A'
S'A'
S'A'
ttp393
g8
((lp394
g1
(g73
g3
NtRp395
(dp396
g14
(S'B'
S'A'
S'A'
S'A'
S'A'
tp397
sg16
I-8966159728651704781
sg17
g32
sg77
(lp398
g52
ag79
ag91
ag25
ag12
ag79
ag60
ag12
ag79
ag60
ag12
ag40
ag60
ag12
asbatRp399
s(g32
(S'A'
S'A'
S'A'
S'A'
S'A'
S'A'
S'A'
ttp400
g8
((lp401
g1
(g73
g3
NtRp402
(dp403
g14
(S'A'
S'A'
S'A'
S'A'
S'A'
S'A'
S'A'
tp404
sg16
I-6433852087374260756
sg17
g32
sg77
(lp405
g52
ag79
ag60
ag12
ag79
ag60
ag12
ag79
ag60
ag12
ag79
ag60
ag12
ag79
ag60
ag12
ag79
ag60
ag12
ag40
ag60
ag12
asbatRp406
s(g32
(S'A'
S'A'
S'A'
ttp407
g8
((lp408
g1
(g73
g3
NtRp409
(dp410
g14
(S'A'
S'A'
S'A'
tp411
sg16
I-2758676094481755796
sg17
g32
sg77
(lp412
g52
ag79
ag60
ag12
ag79
ag60
ag12
ag40
ag60
ag12
asbatRp413
s(g32
(S'B'
S'A'
S'B'
S'A'
S'A'
S'B'
ttp414
g8
((ltRp415
s(g32
(S'A'
S'A'
S'B'
S'A'
S'B'
S'A'
ttp416
g8
((lp417
g1
(g73
g3
NtRp418
(dp419
g14
(S'A'
S'A'
S'B'
S'A'
S'B'
S'A'
tp420
sg16
I-4883885191927071982
sg17
g32
sg77
(lp421
g52
ag79
ag60
ag12
ag79
ag60
ag12
ag79
ag91
ag25
ag12
ag40
ag91
ag25
ag12
asbatRp422
s(g32
(S'A'
S'B'
S'A'
S'A'
S'A'
S'B'
S'A'
ttp423
g8
((lp424
g1
(g73
g3
NtRp425
(dp426
g14
(S'A'
S'B'
S'A'
S'A'
S'A'
S'B'
S'A'
tp427
sg16
I2366317421772867564
sg17
g32
sg77
(lp428
g52
ag79
ag60
ag12
ag79
ag91
ag25
ag12
ag79
ag60
ag12
ag79
ag60
ag12
ag40
ag91
ag25
ag12
asbatRp429
s(g32
(S'A'
S'B'
S'A'
S'A'
ttp430
g8
((lp431
g1
(g73
g3
NtRp432
(dp433
g14
(S'A'
S'B'
S'A'
S'A'
tp434
sg16
I-4753585554823192757
sg17
g32
sg77
(lp435
g52
ag79
ag60
ag12
ag79
ag91
ag25
ag12
ag40
ag60
ag12
asbatRp436
s(g32
(S'B'
S'A'
S'A'
S'A'
S'B'
S'A'
S'A'
ttp437
g8
((lp438
g1
(g73
g3
NtRp439
(dp440
g14
(S'B'
S'A'
S'A'
S'A'
S'B'
S'A'
S'A'
tp441
sg16
I2706060825806157672
sg17
g32
sg77
(lp442
g52
ag79
ag91
ag25
ag12
ag79
ag60
ag12
ag79
ag60
ag12
ag79
ag91
ag25
ag12
ag40
ag60
ag12
asbatRp443
s(g32
(S'B'
S'A'
S'B'
S'A'
S'B'
S'A'
ttp444
g8
((lp445
g1
(g73
g3
NtRp446
(dp447
g14
(S'B'
S'A'
S'B'
S'A'
S'B'
S'A'
tp448
sg16
I6010726330704298429
sg17
g32
sg77
(lp449
g52
ag79
ag91
ag25
ag12
ag79
ag91
ag25
ag12
ag40
ag91
ag25
ag12
asbatRp450
s(g32
(S'B'
S'A'
S'A'
S'A'
S'B'
ttp451
g8
((ltRp452
s(g32
(S'B'
ttp453
g8
((ltRp454
s(g32
(S'A'
S'B'
S'A'
S'A'
S'B'
S'A'
S'A'
ttp455
g8
((lp456
g1
(g73
g3
NtRp457
(dp458
g14
(S'A'
S'B'
S'A'
S'A'
S'B'
S'A'
S'A'
tp459
sg16
I-5417154281763030026
sg17
g32
sg77
(lp460
g52
ag79
ag60
ag12
ag79
ag91
ag25
ag12
ag79
ag60
ag12
ag79
ag91
ag25
ag12
ag40
ag60
ag12
asbatRp461
s(g32
(S'A'
S'A'
ttp462
g8
((lp463
g1
(g73
g3
NtRp464
(dp465
g14
(S'A'
S'A'
tp466
sg16
I-6478850639629933412
sg17
g32
sg77
(lp467
g52
ag79
ag60
ag12
ag40
ag60
ag12
asbatRp468
s(g32
(S'B'
S'A'
S'A'
S'A'
S'A'
S'A'
ttp469
g8
((lp470
g1
(g73
g3
NtRp471
(dp472
g14
(S'B'
S'A'
S'A'
S'A'
S'A'
S'A'
tp473
sg16
I-4041359322255862097
sg17
g32
sg77
(lp474
g52
ag79
ag91
ag25
ag12
ag79
ag60
ag12
ag79
ag60
ag12
ag79
ag60
ag12
ag40
ag60
ag12
asbatRp475
s(g32
(S'B'
S'A'
S'A'
S'A'
S'A'
S'A'
S'A'
ttp476
g8
((lp477
g1
(g73
g3
NtRp478
(dp479
g14
(S'B'
S'A'
S'A'
S'A'
S'A'
S'A'
S'A'
tp480
sg16
I1376068153471606485
sg17
g32
sg77
(lp481
g52
ag79
ag91
ag25
ag12
ag79
ag60
ag12
ag79
ag60
ag12
ag79
ag60
ag12
ag79
ag60
ag12
ag40
ag60
ag12
asbatRp482
s(g32
(S'A'
S'B'
S'A'
S'B'
ttp483
g8
((ltRp484
s(g32
(S'B'
S'A'
S'B'
S'A'
S'A'
S'B'
S'A'
ttp485
g8
((lp486
g1
(g73
g3
NtRp487
(dp488
g14
(S'B'
S'A'
S'B'
S'A'
S'A'
S'B'
S'A'
tp489
sg16
I287995444404125947
sg17
g32
sg77
(lp490
g52
ag79
ag91
ag25
ag12
ag79
ag91
ag25
ag12
ag79
ag60
ag12
ag40
ag91
ag25
ag12
asbatRp491
s(g32
(S'B'
S'A'
S'B'
S'A'
S'A'
S'A'
ttp492
g8
((lp493
g1
(g73
g3
NtRp494
(dp495
g14
(S'B'
S'A'
S'B'
S'A'
S'A'
S'A'
tp496
sg16
I-480415228659166578
sg17
g32
sg77
(lp497
g52
ag79
ag91
ag25
ag12
ag79
ag91
ag25
ag12
ag79
ag60
ag12
ag40
ag60
ag12
asbatRp498
s(g32
(S'A'
S'B'
S'A'
S'B'
S'A'
S'B'
ttp499
g8
((ltRp500
ssS'_batch_size'
p501
I10000
sS'_adapted_non_terminals'
p502
g8
((lp503
g1
(g18
g3
NtRp504
(dp505
g21
S'Word'
p506
sg16
I-7487829120334232892
sbatRp507
sS'_ordered_adaptor_down_top'
p508
(lp509
g32
asS'_number_of_productions_prime'
p510
I0
sS'_pcfg_sufficient_statistics_of_lhs'
p511
(dp512
g28
cnumpy.core.multiarray
_reconstruct
p513
(cnumpy
ndarray
p514
(I0
tS'b'
tRp515
(I1
(I1
I1
tcnumpy
dtype
p516
(S'f8'
I0
I1
tRp517
(I3
S'<'
NNNI-1
I-1
I0
tbI00
S'\x00\x00\x00\x00\x00\x00\x00\x00'
tbsg32
g513
(g514
(I0
tS'b'
tRp518
(I1
(I1
I1
tg517
I00
S'\x00\x00\x00\x00\x00\x00\x00\x00'
tbsg43
g513
(g514
(I0
tS'b'
tRp519
(I1
(I1
I2
tg517
I00
S'\x00\x00\x00\x00\x00\x00\x00\x00\x00\x00\x00\x00\x00\x00\x00\x00'
tbsg19
g513
(g514
(I0
tS'b'
tRp520
(I1
(I1
I1
tg517
I00
S'\x00\x00\x00\x00\x00\x00\x00\x00'
tbsg63
g513
(g514
(I0
tS'b'
tRp521
(I1
(I1
I2
tg517
I00
S'\x00\x00\x00\x00\x00\x00\x00\x00\x00\x00\x00\x00\x00\x00\x00\x00'
tbssS'_incremental_build_up'
p522
I00
sS'_active_adapted_production_to_nu_index_of_lhs'
p523
(dp524
g504
(dp525
g147
I23
sg342
I2
sg402
I32
sg494
I6
sg418
I38
sg181
I26
sg317
I51
sg464
I10
sg209
I11
sg301
I8
sg108
I39
sg349
I33
sg138
I0
sg278
I12
sg365
I36
sg471
I43
sg216
I37
sg395
I24
sg165
I22
sg202
I7
sg446
I27
sg236
I35
sg308
I28
sg154
I47
sg271
I50
sg333
I30
sg432
I15
sg122
I3
sg356
I41
sg250
I45
sg374
I18
sg478
I17
sg292
I16
sg264
I21
sg381
I40
sg188
I25
sg285
I34
sg425
I49
sg195
I5
sg439
I44
sg257
I31
sg409
I29
sg74
I19
sg174
I1
sg243
I46
sg131
I42
sg457
I14
sg229
I4
sg388
I13
sg487
I48
sg115
I20
sg324
I9
sssS'_level_to_non_terminal'
p526
g7
(g8
tRp527
I0
g8
((lp528
g32
atRp529
sI1
g8
((lp530
g48
atRp531
sI2
g8
((lp532
g36
atRp533
sI3
g8
((lp534
g93
ag56
atRp535
ssS'_truncation_level'
p536
(dp537
g504
I1500
ssS'_alpha_theta'
p538
(dp539
g28
g513
(g514
(I0
tS'b'
tRp540
(I1
(I1
I1
tg517
I00
S'\x00\x00\x00\x00\x00\x00\xf0?'
tbsg32
g513
(g514
(I0
tS'b'
tRp541
(I1
(I1
I1
tg517
I00
S'\x00\x00\x00\x00\x00\x00\xf0?'
tbsg43
g513
(g514
(I0
tS'b'
tRp542
(I1
(I1
I2
tg517
I00
S'\x00\x00\x00\x00\x00\x00\xe0?\x00\x00\x00\x00\x00\x00\xe0?'
tbsg19
g513
(g514
(I0
tS'b'
tRp543
(I1
(I1
I1
tg517
I00
S'\x00\x00\x00\x00\x00\x00\xf0?'
tbsg63
g513
(g514
(I0
tS'b'
tRp544
(I1
(I1
I2
tg517
I00
S'\x00\x00\x00\x00\x00\x00\xe0?\x00\x00\x00\x00\x00\x00\xe0?'
tbssS'_table_relabel_interval'
p545
I500
sS'_lhs_rhs_to_pcfg_production'
p546
g7
(tRp547
(g32
g54
tp548
g52
s(g100
g99
tp549
g91
s(g19
g15
tp550
g12
s(g63
g62
tp551
g60
s(g88
g87
tp552
g79
s(g43
g42
tp553
g40
s(g28
g27
tp554
g25
ssS'_pcfg_production_usage_counts_of_lhs'
p555
(dp556
g28
g513
(g514
(I0
tS'b'
tRp557
(I1
(I1
I1
tg516
(S'i8'
I0
I1
tRp558
(I3
S'<'
NNNI-1
I-1
I0
tbI00
S'L\x00\x00\x00\x00\x00\x00\x00'
tbsg32
g513
(g514
(I0
tS'b'
tRp559
(I1
(I1
I1
tg558
I00
S'4\x00\x00\x00\x00\x00\x00\x00'
tbsg43
g513
(g514
(I0
tS'b'
tRp560
(I1
(I1
I2
tg558
I00
S'4\x00\x00\x00\x00\x00\x00\x00\xaa\x00\x00\x00\x00\x00\x00\x00'
tbsg19
g513
(g514
(I0
tS'b'
tRp561
(I1
(I1
I1
tg558
I00
S'\xde\x00\x00\x00\x00\x00\x00\x00'
tbsg63
g513
(g514
(I0
tS'b'
tRp562
(I1
(I1
I2
tg558
I00
S'\x92\x00\x00\x00\x00\x00\x00\x00L\x00\x00\x00\x00\x00\x00\x00'
tbssS'_gamma'
p563
(dp564
g28
g513
(g514
(I0
tS'b'
tRp565
(I1
(I1
I1
tg517
I00
S'\x00\x00\x00\x00\x00@S@'
tbsg32
g513
(g514
(I0
tS'b'
tRp566
(I1
(I1
I1
tg517
I00
S'\x00\x00\x00\x00\x00\x80J@'
tbsg43
g513
(g514
(I0
tS'b'
tRp567
(I1
(I1
I2
tg517
I00
S'\x00\x00\x00\x00\x00@J@\x00\x00\x00\x00\x00Pe@'
tbsg19
g513
(g514
(I0
tS'b'
tRp568
(I1
(I1
I1
tg517
I00
S'\x00\x00\x00\x00\x00\xe0k@'
tbsg63
g513
(g514
(I0
tS'b'
tRp569
(I1
(I1
I2
tg517
I00
S'\x00\x00\x00\x00\x00Pb@\x00\x00\x00\x00\x00 S@'
tbssS'_reorder_interval'
p570
I10
sS'_number_of_samples'
p571
I10
sS'_lhs_to_pcfg_production'
p572
g7
(g8
tRp573
g28
g8
((lp574
g25
atRp575
sg19
g8
((lp576
g12
atRp577
sg43
g8
((lp578
g40
ag79
atRp579
sg32
g8
((lp580
g52
atRp581
sg63
g8
((lp582
g60
ag91
atRp583
ssS'_alpha_pi'
p584
(dp585
g504
F100
ssS'_active_adapted_production_sufficient_statistics_of_lhs'
p586
(dp587
g504
g513
(g514
(I0
tS'b'
tRp588
(I1
(I1
I52
tg517
I00
S'\x00\x00\x00\x00\x00\x00\x00\x00\x00\x00\x00\x00\x00\x00\x00\x00\x00\x00\x00\x00\x00\x00\x00\x00\x00\x00\x00\x00\x00\x00\x00\x00\x00\x00\x00\x00\x00\x00\x00\x00\x00\x00\x00\x00\x00\x00\x00\x00\x00\x00\x00\x00\x00\x00\x00\x00\x00\x00\x00\x00\x00\x00\x00\x00\x00\x00\x00\x00\x00\x00\x00\x00\x00\x00\x00\x00\x00\x00\x00\x00\x00\x00\x00\x00\x00\x00\x00\x00\x00\x00\x00\x00\x00\x00\x00\x00\x00\x00\x00\x00\x00\x00\x00\x00\x00\x00\x00\x00\x00\x00\x00\x00\x00\x00\x00\x00\x00\x00\x00\x00\x00\x00\x00\x00\x00\x00\x00\x00\x00\x00\x00\x00\x00\x00\x00\x00\x00\x00\x00\x00\x00\x00\x00\x00\x00\x00\x00\x00\x00\x00\x00\x00\x00\x00\x00\x00\x00\x00\x00\x00\x00\x00\x00\x00\x00\x00\x00\x00\x00\x00\x00\x00\x00\x00\x00\x00\x00\x00\x00\x00\x00\x00\x00\x00\x00\x00\x00\x00\x00\x00\x00\x00\x00\x00\x00\x00\x00\x00\x00\x00\x00\x00\x00\x00\x00\x00\x00\x00\x00\x00\x00\x00\x00\x00\x00\x00\x00\x00\x00\x00\x00\x00\x00\x00\x00\x00\x00\x00\x00\x00\x00\x00\x00\x00\x00\x00\x00\x00\x00\x00\x00\x00\x00\x00\x00\x00\x00\x00\x00\x00\x00\x00\x00\x00\x00\x00\x00\x00\x00\x00\x00\x00\x00\x00\x00\x00\x00\x00\x00\x00\x00\x00\x00\x00\x00\x00\x00\x00\x00\x00\x00\x00\x00\x00\x00\x00\x00\x00\x00\x00\x00\x00\x00\x00\x00\x00\x00\x00\x00\x00\x00\x00\x00\x00\x00\x00\x00\x00\x00\x00\x00\x00\x00\x00\x00\x00\x00\x00\x00\x00\x00\x00\x00\x00\x00\x00\x00\x00\x00\x00\x00\x00\x00\x00\x00\x00\x00\x00\x00\x00\x00\x00\x00\x00\x00\x00\x00\x00\x00\x00\x00\x00\x00\x00\x00\x00\x00\x00\x00\x00\x00\x00\x00\x00\x00\x00\x00\x00\x00\x00\x00\x00\x00\x00\x00\x00\x00\x00\x00\x00\x00\x00\x00\x00\x00\x00\x00\x00\x00\x00\x00\x00\x00\x00\x00\x00\x00\x00\x00\x00\x00\x00\x00\x00\x00\x00\x00\x00\x00\x00\x00\x00\x00\x00\x00\x00'
tbssS'_kappa'
p589
F0.75
sS'_number_of_strings'
p590
I10000
sS'_initial_table_relable'
p591
I00
sS'_ordered_adaptor_top_down'
p592
(lp593
g32
asS'_nu_index_to_active_adapted_production_of_lhs'
p594
(dp595
g504
(dp596
I0
g138
sI1
g174
sI2
g342
sI3
g122
sI4
g229
sI5
g195
sI6
g494
sI7
g202
sI8
g301
sI9
g324
sI10
g464
sI11
g209
sI12
g278
sI13
g388
sI14
g457
sI15
g432
sI16
g292
sI17
g478
sI18
g374
sI19
g74
sI20
g115
sI21
g264
sI22
g165
sI23
g147
sI24
g395
sI25
g188
sI26
g181
sI27
g446
sI28
g308
sI29
g409
sI30
g333
sI31
g257
sI32
g402
sI33
g349
sI34
g285
sI35
g236
sI36
g365
sI37
g216
sI38
g418
sI39
g108
sI40
g381
sI41
g356
sI42
g131
sI43
g471
sI44
g439
sI45
g250
sI46
g243
sI47
g154
sI48
g487
sI49
g425
sI50
g271
sI51
g317
sssS'_gamma_index_to_pcfg_production_of_lhs'
p597
g7
(g7
tRp598
g28
g7
(tRp599
I0
g25
ssg19
g7
(tRp600
I0
g12
ssg43
g7
(tRp601
I0
g40
sI1
g79
ssg32
g7
(tRp602
I0
g52
ssg63
g7
(tRp603
I0
g60
sI1
g91
sssS'_active_adapted_production_usage_counts_of_lhs'
p604
(dp605
g504
g513
(g514
(I0
tS'b'
tRp606
(I1
(I1
I52
tg517
I00
S'\x00\x00\x00\x00\x00\x00\x00\x00\x00\x00\x00\x00\x00\x00\x00\x00\x00\x00\x00\x00\x00\x00\x00\x00\x00\x00\x00\x00\x00\x00\x00\x00\x00\x00\x00\x00\x00\x00\x00\x00\x00\x00\x00\x00\x00\x00\x00\x00\x00\x00\x00\x00\x00\x00\x00\x00\x00\x00\x00\x00\x00\x00\x00\x00\x00\x00\x00\x00\x00\x00\x00\x00\x00\x00\x00\x00\x00\x00\x00\x00\x00\x00\x00\x00\x00\x00\x00\x00\x00\x00\x00\x00\x00\x00\x00\x00\x00\x00\x00\x00\x00\x00\x00\x00\x00\x00\x00\x00\x00\x00\x00\x00\x00\x00\x00\x00\x00\x00\x00\x00\x00\x00\x00\x00\x00\x00\x00\x00\x00\x00\x00\x00\x00\x00\x00\x00\x00\x00\x00\x00\x00\x00\x00\x00\x00\x00\x00\x00\x00\x00\x00\x00\x00\x00\x00\x00\x00\x00\x00\x00\x00\x00\x00\x00\x00\x00\x00\x00\x00\x00\x00\x00\x00\x00\x00\x00\x00\x00\x00\x00\x00\x00\x00\x00\x00\x00\x00\x00\x00\x00\x00\x00\x00\x00\x00\x00\x00\x00\x00\x00\x00\x00\x00\x00\x00\x00\x00\x00\x00\x00\x00\x00\x00\x00\x00\x00\x00\x00\x00\x00\x00\x00\x00\x00\x00\x00\x00\x00\x00\x00\x00\x00\x00\x00\x00\x00\x00\x00\x00\x00\x00\x00\x00\x00\x00\x00\x00\x00\x00\x00\x00\x00\x00\x00\x00\x00\x00\x00\x00\x00\x00\x00\x00\x00\x00\x00\x00\x00\x00\x00\x00\x00\x00\x00\x00\x00\x00\x00\x00\x00\x00\x00\x00\x00\x00\x00\x00\x00\x00\x00\x00\x00\x00\x00\x00\x00\x00\x00\x00\x00\x00\x00\x00\x00\x00\x00\x00\x00\x00\x00\x00\x00\x00\x00\x00\x00\x00\x00\x00\x00\x00\x00\x00\x00\x00\x00\x00\x00\x00\x00\x00\x00\x00\x00\x00\x00\x00\x00\x00\x00\x00\x00\x00\x00\x00\x00\x00\x00\x00\x00\x00\x00\x00\x00\x00\x00\x00\x00\x00\x00\x00\x00\x00\x00\x00\x00\x00\x00\x00\x00\x00\x00\x00\x00\x00\x00\x00\x00\x00\x00\x00\x00\x00\x00\x00\x00\x00\x00\x00\x00\x00\x00\x00\x00\x00\x00\x00\x00\x00\x00\x00\x00\x00\x00\x00\x00\x00\x00\x00\x00\x00\x00\x00\x00\x00\x00'
tbssS'_rhs_to_pcfg_production'
p607
g7
(g8
tRp608
g42
g8
((lp609
g40
atRp610
sg15
g8
((lp611
g12
atRp612
sg27
g8
((lp613
g25
atRp614
sg99
g8
((lp615
g91
atRp616
sg87
g8
((lp617
g79
atRp618
sg54
g8
((lp619
g52
atRp620
sg62
g8
((lp621
g60
atRp622
ssS'_table_relabel_iterations'
p623
I0
sS'_adapted_production_dependents_of_adapted_production'
p624
g7
(g8
tRp625
sS'_non_terminal_to_level'
p626
(dp627
g93
I3
sg56
I3
sg48
I1
sg32
I0
sg36
I2
ssS'_start_symbol'
p628
g32
sS'_non_terminals'
p629
g8
((lp630
g28
ag19
ag43
ag32
ag63
atRp631
sS'_adapted_production_usage_freqdist'
p632
cnltk.probability
FreqDist
p633
((dtRp634
sS'_lhs_to_active_adapted_production'
p635
g7
(g8
tRp636
g32
g8
((lp637
g147
ag342
ag402
ag494
ag418
ag181
ag317
ag464
ag209
ag301
ag108
ag349
ag138
ag278
ag365
ag471
ag216
ag395
ag165
ag202
ag446
ag236
ag308
ag154
ag271
ag333
ag432
ag122
ag356
ag250
ag374
ag478
ag292
ag264
ag381
ag188
ag285
ag425
ag195
ag439
ag257
ag409
ag74
ag174
ag243
ag131
ag457
ag229
ag388
ag487
ag115
ag324
atRp638
ssS'_ranking_statistics_scale'
p639
F22.627416997969519
sS'_nu_1'
p640
(dp641
g504
g513
(g514
(I0
tS'b'
tRp642
(I1
(I1
I52
tg517
I00
S'\x00\x00\x00\x00\x00\x00\xf0?\x00\x00\x00\x00\x00\x00\xf0?\x00\x00\x00\x00\x00\x00\xf0?\x00\x00\x00\x00\x00\x00\xf0?\x00\x00\x00\x00\x00\x00\xf0?\x00\x00\x00\x00\x00\x00\xf0?\x00\x00\x00\x00\x00\x00\xf0?\x00\x00\x00\x00\x00\x00\xf0?\x00\x00\x00\x00\x00\x00\xf0?\x00\x00\x00\x00\x00\x00\xf0?\x00\x00\x00\x00\x00\x00\xf0?\x00\x00\x00\x00\x00\x00\xf0?\x00\x00\x00\x00\x00\x00\xf0?\x00\x00\x00\x00\x00\x00\xf0?\x00\x00\x00\x00\x00\x00\xf0?\x00\x00\x00\x00\x00\x00\xf0?\x00\x00\x00\x00\x00\x00\xf0?\x00\x00\x00\x00\x00\x00\xf0?\x00\x00\x00\x00\x00\x00\xf0?\x00\x00\x00\x00\x00\x00\xf0?\x00\x00\x00\x00\x00\x00\xf0?\x00\x00\x00\x00\x00\x00\xf0?\x00\x00\x00\x00\x00\x00\xf0?\x00\x00\x00\x00\x00\x00\xf0?\x00\x00\x00\x00\x00\x00\xf0?\x00\x00\x00\x00\x00\x00\xf0?\x00\x00\x00\x00\x00\x00\xf0?\x00\x00\x00\x00\x00\x00\xf0?\x00\x00\x00\x00\x00\x00\xf0?\x00\x00\x00\x00\x00\x00\xf0?\x00\x00\x00\x00\x00\x00\xf0?\x00\x00\x00\x00\x00\x00\xf0?\x00\x00\x00\x00\x00\x00\xf0?\x00\x00\x00\x00\x00\x00\xf0?\x00\x00\x00\x00\x00\x00\xf0?\x00\x00\x00\x00\x00\x00\xf0?\x00\x00\x00\x00\x00\x00\xf0?\x00\x00\x00\x00\x00\x00\xf0?\x00\x00\x00\x00\x00\x00\xf0?\x00\x00\x00\x00\x00\x00\xf0?\x00\x00\x00\x00\x00\x00\xf0?\x00\x00\x00\x00\x00\x00\xf0?\x00\x00\x00\x00\x00\x00\xf0?\x00\x00\x00\x00\x00\x00\xf0?\x00\x00\x00\x00\x00\x00\xf0?\x00\x00\x00\x00\x00\x00\xf0?\x00\x00\x00\x00\x00\x00\xf0?\x00\x00\x00\x00\x00\x00\xf0?\x00\x00\x00\x00\x00\x00\xf0?\x00\x00\x00\x00\x00\x00\xf0?\x00\x00\x00\x00\x00\x00\xf0?\x00\x00\x00\x00\x00\x00\xf0?'
tbssS'_counter'
p643
I1
sS'_pcfg_production_to_gamma_index_of_lhs'
p644
g7
(g7
tRp645
g28
g7
(tRp646
g25
I0
ssg19
g7
(tRp647
g12
I0
ssg43
g7
(tRp648
g40
I0
sg79
I1
ssg32
g7
(tRp649
g52
I0
ssg63
g7
(tRp650
g60
I0
sg91
I1
sssS'_pcfg_productions'
p651
g7
(g8
tRp652
(g32
g54
tp653
g8
((lp654
g52
atRp655
s(g100
g99
tp656
g8
((lp657
g91
atRp658
s(g19
g15
tp659
g8
((lp660
g12
atRp661
s(g63
g62
tp662
g8
((lp663
g60
atRp664
s(g88
g87
tp665
g8
((lp666
g79
atRp667
s(g43
g42
tp668
g8
((lp669
g40
atRp670
s(g28
g27
tp671
g8
((lp672
g25
atRp673
ssS'_nu_2'
p674
(dp675
g504
g513
(g514
(I0
tS'b'
tRp676
(I1
(I1
I52
tg517
I00
S'\x00\x00\x00\x00\x00\x00Y@\x00\x00\x00\x00\x00\x00Y@\x00\x00\x00\x00\x00\x00Y@\x00\x00\x00\x00\x00\x00Y@\x00\x00\x00\x00\x00\x00Y@\x00\x00\x00\x00\x00\x00Y@\x00\x00\x00\x00\x00\x00Y@\x00\x00\x00\x00\x00\x00Y@\x00\x00\x00\x00\x00\x00Y@\x00\x00\x00\x00\x00\x00Y@\x00\x00\x00\x00\x00\x00Y@\x00\x00\x00\x00\x00\x00Y@\x00\x00\x00\x00\x00\x00Y@\x00\x00\x00\x00\x00\x00Y@\x00\x00\x00\x00\x00\x00Y@\x00\x00\x00\x00\x00\x00Y@\x00\x00\x00\x00\x00\x00Y@\x00\x00\x00\x00\x00\x00Y@\x00\x00\x00\x00\x00\x00Y@\x00\x00\x00\x00\x00\x00Y@\x00\x00\x00\x00\x00\x00Y@\x00\x00\x00\x00\x00\x00Y@\x00\x00\x00\x00\x00\x00Y@\x00\x00\x00\x00\x00\x00Y@\x00\x00\x00\x00\x00\x00Y@\x00\x00\x00\x00\x00\x00Y@\x00\x00\x00\x00\x00\x00Y@\x00\x00\x00\x00\x00\x00Y@\x00\x00\x00\x00\x00\x00Y@\x00\x00\x00\x00\x00\x00Y@\x00\x00\x00\x00\x00\x00Y@\x00\x00\x00\x00\x00\x00Y@\x00\x00\x00\x00\x00\x00Y@\x00\x00\x00\x00\x00\x00Y@\x00\x00\x00\x00\x00\x00Y@\x00\x00\x00\x00\x00\x00Y@\x00\x00\x00\x00\x00\x00Y@\x00\x00\x00\x00\x00\x00Y@\x00\x00\x00\x00\x00\x00Y@\x00\x00\x00\x00\x00\x00Y@\x00\x00\x00\x00\x00\x00Y@\x00\x00\x00\x00\x00\x00Y@\x00\x00\x00\x00\x00\x00Y@\x00\x00\x00\x00\x00\x00Y@\x00\x00\x00\x00\x00\x00Y@\x00\x00\x00\x00\x00\x00Y@\x00\x00\x00\x00\x00\x00Y@\x00\x00\x00\x00\x00\x00Y@\x00\x00\x00\x00\x00\x00Y@\x00\x00\x00\x00\x00\x00Y@\x00\x00\x00\x00\x00\x00Y@\x00\x00\x00\x00\x00\x00Y@'
tbssS'_beta_pi'
p677
(dp678
g504
F0
ssS'_active_adapted_production_length_of_lhs'
p679
(dp680
g504
g513
(g514
(I0
tS'b'
tRp681
(I1
(I1
I52
tg517
I00
S'\x00\x00\x00\x00\x00\x00\x10@\x00\x00\x00\x00\x00\x00\x10@\x00\x00\x00\x00\x00\x00\x1c@\x00\x00\x00\x00\x00\x00\x10@\x00\x00\x00\x00\x00\x00\x14@\x00\x00\x00\x00\x00\x00\x08@\x00\x00\x00\x00\x00\x00\x18@\x00\x00\x00\x00\x00\x00\x08@\x00\x00\x00\x00\x00\x00\x00@\x00\x00\x00\x00\x00\x00\x18@\x00\x00\x00\x00\x00\x00\x00@\x00\x00\x00\x00\x00\x00\x14@\x00\x00\x00\x00\x00\x00\x18@\x00\x00\x00\x00\x00\x00\x1c@\x00\x00\x00\x00\x00\x00\x1c@\x00\x00\x00\x00\x00\x00\x10@\x00\x00\x00\x00\x00\x00\x10@\x00\x00\x00\x00\x00\x00\x1c@\x00\x00\x00\x00\x00\x00\x14@\x00\x00\x00\x00\x00\x00\x1c@\x00\x00\x00\x00\x00\x00\x14@\x00\x00\x00\x00\x00\x00\x1c@\x00\x00\x00\x00\x00\x00\x18@\x00\x00\x00\x00\x00\x00\x1c@\x00\x00\x00\x00\x00\x00\x14@\x00\x00\x00\x00\x00\x00\x14@\x00\x00\x00\x00\x00\x00\x18@\x00\x00\x00\x00\x00\x00\x18@\x00\x00\x00\x00\x00\x00\x1c@\x00\x00\x00\x00\x00\x00\x08@\x00\x00\x00\x00\x00\x00\x18@\x00\x00\x00\x00\x00\x00\x1c@\x00\x00\x00\x00\x00\x00\x1c@\x00\x00\x00\x00\x00\x00\x14@\x00\x00\x00\x00\x00\x00\x18@\x00\x00\x00\x00\x00\x00\x18@\x00\x00\x00\x00\x00\x00\x1c@\x00\x00\x00\x00\x00\x00\x1c@\x00\x00\x00\x00\x00\x00\x18@\x00\x00\x00\x00\x00\x00\x14@\x00\x00\x00\x00\x00\x00\x1c@\x00\x00\x00\x00\x00\x00\x18@\x00\x00\x00\x00\x00\x00\x1c@\x00\x00\x00\x00\x00\x00\x18@\x00\x00\x00\x00\x00\x00\x1c@\x00\x00\x00\x00\x00\x00\x1c@\x00\x00\x00\x00\x00\x00\x1c@\x00\x00\x00\x00\x00\x00\x18@\x00\x00\x00\x00\x00\x00\x1c@\x00\x00\x00\x00\x00\x00\x1c@\x00\x00\x00\x00\x00\x00\x1c@\x00\x00\x00\x00\x00\x00\x1c@'
tbssS'_epsilon'
p682
F0.043683254068210421
sS'_terminals'
p683
g8
((lp684
VA
aVB
atRp685
sS'_adapted_production_sufficient_statistics_of_lhs'
p686
g7
(g633
tRp687
sS'_rhs_to_active_adapted_production'
p688
g7
(g8
tRp689
(S'B'
S'A'
S'B'
S'A'
S'A'
S'A'
tp690
g8
((lp691
g494
atRp692
s(S'A'
S'A'
S'A'
S'B'
S'A'
S'A'
tp693
g8
((lp694
g165
atRp695
s(S'A'
S'B'
S'A'
S'A'
tp696
g8
((lp697
g432
atRp698
s(S'A'
S'A'
S'A'
S'B'
S'A'
S'B'
S'A'
tp699
g8
((lp700
g131
atRp701
s(S'B'
S'A'
S'A'
S'B'
S'A'
tp702
g8
((lp703
g374
atRp704
s(S'A'
S'B'
S'A'
tp705
g8
((lp706
g202
atRp707
s(S'A'
S'B'
S'A'
S'B'
S'A'
S'B'
S'A'
tp708
g8
((lp709
g74
atRp710
s(S'A'
S'B'
S'A'
S'B'
S'A'
S'A'
tp711
g8
((lp712
g181
atRp713
s(S'B'
S'A'
S'A'
S'B'
S'A'
S'B'
S'A'
tp714
g8
((lp715
g342
atRp716
s(S'A'
S'B'
S'A'
S'B'
S'A'
tp717
g8
((lp718
g209
atRp719
s(S'B'
S'A'
S'B'
S'A'
S'B'
S'A'
S'A'
tp720
g8
((lp721
g308
atRp722
s(S'A'
S'A'
S'A'
tp723
g8
((lp724
g409
atRp725
s(S'A'
S'A'
S'B'
S'A'
S'A'
tp726
g8
((lp727
g188
atRp728
s(S'A'
S'A'
S'A'
S'B'
S'A'
S'A'
S'A'
tp729
g8
((lp730
g216
atRp731
s(S'A'
S'B'
S'A'
S'A'
S'A'
tp732
g8
((lp733
g349
atRp734
s(S'B'
S'A'
S'A'
S'A'
S'A'
S'A'
tp735
g8
((lp736
g471
atRp737
s(S'A'
S'B'
S'A'
S'B'
S'A'
S'A'
S'A'
tp738
g8
((lp739
g365
atRp740
s(S'B'
S'A'
S'A'
S'A'
S'A'
S'A'
S'A'
tp741
g8
((lp742
g478
atRp743
s(S'A'
S'A'
S'A'
S'A'
S'A'
tp744
g8
((lp745
g115
atRp746
s(S'A'
S'A'
S'B'
S'A'
S'B'
S'A'
tp747
g8
((lp748
g418
atRp749
s(S'A'
S'A'
S'A'
S'A'
S'A'
S'A'
S'A'
tp750
g8
((lp751
g402
atRp752
s(S'B'
S'A'
S'A'
S'B'
S'A'
S'A'
tp753
g8
((lp754
g333
atRp755
s(S'B'
S'A'
tp756
g8
((lp757
g301
atRp758
s(S'B'
S'A'
S'A'
tp759
g8
((lp760
g195
atRp761
s(S'B'
S'A'
S'B'
S'A'
S'A'
S'B'
S'A'
tp762
g8
((lp763
g487
atRp764
s(S'A'
S'A'
S'A'
S'A'
S'B'
S'A'
S'A'
tp765
g8
((lp766
g271
atRp767
s(S'A'
S'A'
S'A'
S'A'
S'B'
S'A'
tp768
g8
((lp769
g356
atRp770
s(S'A'
S'B'
S'A'
S'A'
S'B'
S'A'
S'A'
tp771
g8
((lp772
g457
atRp773
s(S'B'
S'A'
S'A'
S'A'
S'A'
tp774
g8
((lp775
g395
atRp776
s(S'A'
S'A'
tp777
g8
((lp778
g464
atRp779
s(S'A'
S'A'
S'B'
S'A'
S'A'
S'A'
S'A'
tp780
g8
((lp781
g381
atRp782
s(S'B'
S'A'
S'A'
S'B'
S'A'
S'A'
S'A'
tp783
g8
((lp784
g147
atRp785
s(S'A'
S'B'
S'A'
S'A'
S'A'
S'A'
tp786
g8
((lp787
g278
atRp788
s(S'B'
S'A'
S'B'
S'A'
S'A'
tp789
g8
((lp790
g229
atRp791
s(S'A'
S'A'
S'A'
S'A'
S'A'
S'B'
S'A'
tp792
g8
((lp793
g317
atRp794
s(S'A'
S'A'
S'B'
S'A'
S'B'
S'A'
S'A'
tp795
g8
((lp796
g257
atRp797
s(S'A'
S'A'
S'A'
S'A'
S'A'
S'A'
tp798
g8
((lp799
g154
atRp800
s(S'B'
S'A'
S'A'
S'A'
S'A'
S'B'
S'A'
tp801
g8
((lp802
g250
atRp803
s(S'A'
S'B'
S'A'
S'A'
S'A'
S'A'
S'A'
tp804
g8
((lp805
g243
atRp806
s(S'B'
S'A'
S'B'
S'A'
S'B'
S'A'
tp807
g8
((lp808
g446
atRp809
s(S'A'
S'B'
S'A'
S'A'
S'A'
S'B'
S'A'
tp810
g8
((lp811
g425
atRp812
s(S'A'
S'A'
S'B'
S'A'
S'A'
S'B'
S'A'
tp813
g8
((lp814
g388
atRp815
s(S'B'
S'A'
S'B'
S'A'
tp816
g8
((lp817
g174
atRp818
s(S'A'
S'A'
S'B'
S'A'
tp819
g8
((lp820
g138
atRp821
s(S'B'
S'A'
S'A'
S'A'
tp822
g8
((lp823
g292
atRp824
s(S'B'
S'A'
S'A'
S'A'
S'B'
S'A'
tp825
g8
((lp826
g285
atRp827
s(S'B'
S'A'
S'B'
S'A'
S'A'
S'A'
S'A'
tp828
g8
((lp829
g264
atRp830
s(S'A'
S'B'
S'A'
S'A'
S'B'
S'A'
tp831
g8
((lp832
g324
atRp833
s(S'A'
S'A'
S'A'
S'A'
tp834
g8
((lp835
g122
atRp836
s(S'A'
S'A'
S'A'
S'B'
S'A'
tp837
g8
((lp838
g108
atRp839
s(S'A'
S'A'
S'B'
S'A'
S'A'
S'A'
tp840
g8
((lp841
g236
atRp842
s(S'B'
S'A'
S'A'
S'A'
S'B'
S'A'
S'A'
tp843
g8
((lp844
g439
atRp845
ssS'_tau'
p846
F64
sS'_number_of_productions'
p847
I0
sb.