ccopy_reg
_reconstructor
p1
(chybrid
Hybrid
p2
c__builtin__
object
p3
NtRp4
(dp5
S'_rhs_to_unary_pcfg_production'
p6
ccollections
defaultdict
p7
(c__builtin__
set
p8
tRp9
VA
g8
((lp10
g1
(cnltk.grammar
Production
p11
g3
NtRp12
(dp13
S'_rhs'
p14
(VA
tp15
sS'_hash'
p16
I-6031013813573080186
sS'_lhs'
p17
g1
(cnltk.grammar
Nonterminal
p18
g3
NtRp19
(dp20
S'_symbol'
p21
VNucleus
p22
sg16
I-2187922955892876620
sbsbatRp23
sVB
g8
((lp24
g1
(g11
g3
NtRp25
(dp26
g14
(VB
tp27
sg16
I-4788177378572342785
sg17
g1
(g18
g3
NtRp28
(dp29
g21
VOnset
p30
sg16
I386175822344591504
sbsbatRp31
sg1
(g18
g3
NtRp32
(dp33
g21
VWord
p34
sg16
I-7487829120334232892
sbg8
((ltRp35
sg1
(g18
g3
NtRp36
(dp37
g21
VSyl
p38
sg16
I-1228887169348443217
sbg8
((lp39
g1
(g11
g3
NtRp40
(dp41
g14
(g36
tp42
sg16
I1457082601528794552
sg17
g1
(g18
g3
NtRp43
(dp44
g21
VSyls
p45
sg16
I-5659307568355774861
sbsbatRp46
sg28
g8
((ltRp47
sg1
(g18
g3
NtRp48
(dp49
g21
VSyls
p50
sg16
I-5659307568355774861
sbg8
((lp51
g1
(g11
g3
NtRp52
(dp53
g14
(g48
tp54
sg16
I3838246743812645699
sg17
g32
sbatRp55
sg1
(g18
g3
NtRp56
(dp57
g21
VNucleus
p58
sg16
I-2187922955892876620
sbg8
((lp59
g1
(g11
g3
NtRp60
(dp61
g14
(g56
tp62
sg16
I7092314276867068909
sg17
g1
(g18
g3
NtRp63
(dp64
g21
VSyl
p65
sg16
I-1228887169348443217
sbsbatRp66
ssS'_lhs_rhs_to_active_adapted_production'
p67
g7
(g8
tRp68
(g32
(S'B'
S'A'
S'A'
S'B'
ttp69
g8
((ltRp70
s(g32
(S'A'
S'B'
S'A'
S'B'
S'A'
S'B'
S'A'
ttp71
g8
((lp72
g1
(cutil
AdaptedProduction
p73
g3
NtRp74
(dp75
g14
(S'A'
S'B'
S'A'
S'B'
S'A'
S'B'
S'A'
tp76
sg16
I-2225830649029521299
sg17
g32
sS'_productions'
p77
(lp78
g52
ag1
(g11
g3
NtRp79
(dp80
g14
(g1
(g18
g3
NtRp81
(dp82
g21
VSyl
p83
sg16
I-1228887169348443217
sbg1
(g18
g3
NtRp84
(dp85
g21
VSyls
p86
sg16
I-5659307568355774861
sbtp87
sg16
I-1069894011082058221
sg17
g1
(g18
g3
NtRp88
(dp89
g21
VSyls
p90
sg16
I-5659307568355774861
sbsbag60
ag12
ag79
ag1
(g11
g3
NtRp91
(dp92
g14
(g1
(g18
g3
NtRp93
(dp94
g21
VOnset
p95
sg16
I386175822344591504
sbg1
(g18
g3
NtRp96
(dp97
g21
VNucleus
p98
sg16
I-2187922955892876620
sbtp99
sg16
I-4580647145546379003
sg17
g1
(g18
g3
NtRp100
(dp101
g21
VSyl
p102
sg16
I-1228887169348443217
sbsbag25
ag12
ag79
ag91
ag25
ag12
ag40
ag91
ag25
ag12
asbatRp103
s(g32
(S'B'
S'A'
S'B'
ttp104
g8
((ltRp105
s(g32
(S'A'
S'A'
S'A'
S'A'
S'A'
ttp106
g8
((lp107
g1
(g73
g3
NtRp108
(dp109
g14
(S'A'
S'A'
S'A'
S'A'
S'A'
tp110
sg16
I-4205258479537446660
sg17
g32
sg77
(lp111
g52
ag79
ag60
ag12
ag79
ag60
ag12
ag79
ag60
ag12
ag79
ag60
ag12
ag40
ag60
ag12
asbatRp112
s(g32
(S'A'
S'A'
S'A'
S'A'
ttp113
g8
((lp114
g1
(g73
g3
NtRp115
(dp116
g14
(S'A'
S'A'
S'A'
S'A'
tp117
sg16
I-1325365498446268084
sg17
g32
sg77
(lp118
g52
ag79
ag60
ag12
ag79
ag60
ag12
ag79
ag60
ag12
ag40
ag60
ag12
asbatRp119
s(g32
(S'A'
S'A'
S'A'
S'A'
S'B'
ttp120
g8
((ltRp121
s(g32
(S'A'
S'A'
S'A'
S'B'
S'A'
S'B'
S'A'
ttp122
g8
((lp123
g1
(g73
g3
NtRp124
(dp125
g14
(S'A'
S'A'
S'A'
S'B'
S'A'
S'B'
S'A'
tp126
sg16
I4172461770188130802
sg17
g32
sg77
(lp127
g52
ag79
ag60
ag12
ag79
ag60
ag12
ag79
ag60
ag12
ag79
ag91
ag25
ag12
ag40
ag91
ag25
ag12
asbatRp128
s(g32
(S'A'
S'A'
S'B'
S'A'
ttp129
g8
((lp130
g1
(g73
g3
NtRp131
(dp132
g14
(S'A'
S'A'
S'B'
S'A'
tp133
sg16
I-2316844505522669525
sg17
g32
sg77
(lp134
g52
ag79
ag60
ag12
ag79
ag60
ag12
ag40
ag91
ag25
ag12
asbatRp135
s(g32
(S'B'
S'A'
S'A'
S'A'
S'A'
S'B'
ttp136
g8
((ltRp137
s(g32
(S'B'
S'A'
S'A'
S'B'
S'A'
S'A'
S'A'
ttp138
g8
((lp139
g1
(g73
g3
NtRp140
(dp141
g14
(S'B'
S'A'
S'A'
S'B'
S'A'
S'A'
S'A'
tp142
sg16
I2613370209769776512
sg17
g32
sg77
(lp143
g52
ag79
ag91
ag25
ag12
ag79
ag60
ag12
ag79
ag91
ag25
ag12
ag79
ag60
ag12
ag40
ag60
ag12
asbatRp144
s(g32
(S'A'
S'B'
S'A'
S'B'
S'A'
S'B'
ttp145
g8
((ltRp146
s(g32
(S'A'
ttp147
g8
((ltRp148
s(g32
(S'A'
S'A'
S'A'
S'B'
ttp149
g8
((ltRp150
s(g32
(S'A'
S'A'
S'A'
S'B'
S'A'
S'A'
ttp151
g8
((lp152
g1
(g73
g3
NtRp153
(dp154
g14
(S'A'
S'A'
S'A'
S'B'
S'A'
S'A'
tp155
sg16
I665966230241940149
sg17
g32
sg77
(lp156
g52
ag79
ag60
ag12
ag79
ag60
ag12
ag79
ag60
ag12
ag79
ag91
ag25
ag12
ag40
ag60
ag12
asbatRp157
s(g32
(S'A'
S'A'
S'A'
S'B'
S'A'
ttp158
g8
((lp159
g1
(g73
g3
NtRp160
(dp161
g14
(S'A'
S'A'
S'A'
S'B'
S'A'
tp162
sg16
I-1076558265529941029
sg17
g32
sg77
(lp163
g52
ag79
ag60
ag12
ag79
ag60
ag12
ag79
ag60
ag12
ag40
ag91
ag25
ag12
asbatRp164
s(g32
(S'B'
S'A'
S'B'
S'A'
ttp165
g8
((lp166
g1
(g73
g3
NtRp167
(dp168
g14
(S'B'
S'A'
S'B'
S'A'
tp169
sg16
I8240817732820029550
sg17
g32
sg77
(lp170
g52
ag79
ag91
ag25
ag12
ag40
ag91
ag25
ag12
asbatRp171
s(g32
(S'A'
S'B'
S'A'
S'B'
S'A'
S'A'
ttp172
g8
((lp173
g1
(g73
g3
NtRp174
(dp175
g14
(S'A'
S'B'
S'A'
S'B'
S'A'
S'A'
tp176
sg16
I7456251271614574996
sg17
g32
sg77
(lp177
g52
ag79
ag60
ag12
ag79
ag91
ag25
ag12
ag79
ag91
ag25
ag12
ag40
ag60
ag12
asbatRp178
s(g32
(S'A'
S'A'
S'B'
S'A'
S'A'
ttp179
g8
((lp180
g1
(g73
g3
NtRp181
(dp182
g14
(S'A'
S'A'
S'B'
S'A'
S'A'
tp183
sg16
I-4797331791566421285
sg17
g32
sg77
(lp184
g52
ag79
ag60
ag12
ag79
ag60
ag12
ag79
ag91
ag25
ag12
ag40
ag60
ag12
asbatRp185
s(g32
(S'B'
S'A'
S'A'
S'B'
S'A'
S'B'
ttp186
g8
((ltRp187
s(g32
(S'B'
S'A'
S'A'
ttp188
g8
((lp189
g1
(g73
g3
NtRp190
(dp191
g14
(S'B'
S'A'
S'A'
tp192
sg16
I-9186871463055856539
sg17
g32
sg77
(lp193
g52
ag79
ag91
ag25
ag12
ag40
ag60
ag12
asbatRp194
s(g32
(S'A'
S'B'
S'A'
ttp195
g8
((lp196
g1
(g73
g3
NtRp197
(dp198
g14
(S'A'
S'B'
S'A'
tp199
sg16
I-7713826496372588769
sg17
g32
sg77
(lp200
g52
ag79
ag60
ag12
ag40
ag91
ag25
ag12
asbatRp201
s(g32
(S'A'
S'B'
S'A'
S'B'
S'A'
ttp202
g8
((lp203
g1
(g73
g3
NtRp204
(dp205
g14
(S'A'
S'B'
S'A'
S'B'
S'A'
tp206
sg16
I-7608205695528014690
sg17
g32
sg77
(lp207
g52
ag79
ag60
ag12
ag79
ag91
ag25
ag12
ag40
ag91
ag25
ag12
asbatRp208
s(g32
(S'A'
S'A'
S'A'
S'B'
S'A'
S'A'
S'A'
ttp209
g8
((lp210
g1
(g73
g3
NtRp211
(dp212
g14
(S'A'
S'A'
S'A'
S'B'
S'A'
S'A'
S'A'
tp213
sg16
I5022195941642987825
sg17
g32
sg77
(lp214
g52
ag79
ag60
ag12
ag79
ag60
ag12
ag79
ag60
ag12
ag79
ag91
ag25
ag12
ag79
ag60
ag12
ag40
ag60
ag12
asbatRp215
s(g32
(S'B'
S'A'
S'B'
S'A'
S'B'
ttp216
g8
((ltRp217
s(g32
(S'A'
S'B'
S'A'
S'A'
S'B'
ttp218
g8
((ltRp219
s(g32
(S'A'
S'B'
ttp220
g8
((ltRp221
s(g32
(S'A'
S'A'
S'A'
S'A'
S'B'
S'A'
S'A'
ttp222
g8
((lp223
g1
(g73
g3
NtRp224
(dp225
g14
(S'A'
S'A'
S'A'
S'A'
S'B'
S'A'
S'A'
tp226
sg16
I4459025393897511113
sg17
g32
sg77
(lp227
g52
ag79
ag60
ag12
ag79
ag60
ag12
ag79
ag60
ag12
ag79
ag60
ag12
ag79
ag91
ag25
ag12
ag40
ag60
ag12
asbatRp228
s(g32
(S'A'
S'A'
S'B'
S'A'
S'A'
S'A'
ttp229
g8
((lp230
g1
(g73
g3
NtRp231
(dp232
g14
(S'A'
S'A'
S'B'
S'A'
S'A'
S'A'
tp233
sg16
I-3326099251008504255
sg17
g32
sg77
(lp234
g52
ag79
ag60
ag12
ag79
ag60
ag12
ag79
ag91
ag25
ag12
ag79
ag60
ag12
ag40
ag60
ag12
asbatRp235
s(g32
(S'A'
S'B'
S'A'
S'A'
S'A'
S'A'
S'A'
ttp236
g8
((lp237
g1
(g73
g3
NtRp238
(dp239
g14
(S'A'
S'B'
S'A'
S'A'
S'A'
S'A'
S'A'
tp240
sg16
I7656497927841721199
sg17
g32
sg77
(lp241
g52
ag79
ag60
ag12
ag79
ag91
ag25
ag12
ag79
ag60
ag12
ag79
ag60
ag12
ag79
ag60
ag12
ag40
ag60
ag12
asbatRp242
s(g32
(S'B'
S'A'
S'A'
S'A'
S'A'
S'B'
S'A'
ttp243
g8
((lp244
g1
(g73
g3
NtRp245
(dp246
g14
(S'B'
S'A'
S'A'
S'A'
S'A'
S'B'
S'A'
tp247
sg16
I4769111891365400310
sg17
g32
sg77
(lp248
g52
ag79
ag91
ag25
ag12
ag79
ag60
ag12
ag79
ag60
ag12
ag79
ag60
ag12
ag40
ag91
ag25
ag12
asbatRp249
s(g32
(S'A'
S'A'
S'B'
S'A'
S'B'
S'A'
S'A'
ttp250
g8
((lp251
g1
(g73
g3
NtRp252
(dp253
g14
(S'A'
S'A'
S'B'
S'A'
S'B'
S'A'
S'A'
tp254
sg16
I-1364228983069653892
sg17
g32
sg77
(lp255
g52
ag79
ag60
ag12
ag79
ag60
ag12
ag79
ag91
ag25
ag12
ag79
ag91
ag25
ag12
ag40
ag60
ag12
asbatRp256
s(g32
(S'B'
S'A'
S'B'
S'A'
S'A'
S'A'
S'A'
ttp257
g8
((lp258
g1
(g73
g3
NtRp259
(dp260
g14
(S'B'
S'A'
S'B'
S'A'
S'A'
S'A'
S'A'
tp261
sg16
I-9169649360894987816
sg17
g32
sg77
(lp262
g52
ag79
ag91
ag25
ag12
ag79
ag91
ag25
ag12
ag79
ag60
ag12
ag79
ag60
ag12
ag40
ag60
ag12
asbatRp263
s(g32
(S'A'
S'B'
S'A'
S'A'
S'A'
S'A'
ttp264
g8
((lp265
g1
(g73
g3
NtRp266
(dp267
g14
(S'A'
S'B'
S'A'
S'A'
S'A'
S'A'
tp268
sg16
I-2536487101653917139
sg17
g32
sg77
(lp269
g52
ag79
ag60
ag12
ag79
ag91
ag25
ag12
ag79
ag60
ag12
ag79
ag60
ag12
ag40
ag60
ag12
asbatRp270
s(g32
(S'B'
S'A'
S'A'
S'A'
S'B'
S'A'
ttp271
g8
((lp272
g1
(g73
g3
NtRp273
(dp274
g14
(S'B'
S'A'
S'A'
S'A'
S'B'
S'A'
tp275
sg16
I-5320923933598762500
sg17
g32
sg77
(lp276
g52
ag79
ag91
ag25
ag12
ag79
ag60
ag12
ag79
ag60
ag12
ag40
ag91
ag25
ag12
asbatRp277
s(g32
(S'A'
S'A'
S'A'
S'A'
S'A'
S'A'
ttp278
g8
((lp279
g1
(g73
g3
NtRp280
(dp281
g14
(S'A'
S'A'
S'A'
S'A'
S'A'
S'A'
tp282
sg16
I-7424224077654823140
sg17
g32
sg77
(lp283
g52
ag79
ag60
ag12
ag79
ag60
ag12
ag79
ag60
ag12
ag79
ag60
ag12
ag79
ag60
ag12
ag40
ag60
ag12
asbatRp284
s(g32
(S'B'
S'A'
S'A'
S'A'
ttp285
g8
((lp286
g1
(g73
g3
NtRp287
(dp288
g14
(S'B'
S'A'
S'A'
S'A'
tp289
sg16
I8192998892612929273
sg17
g32
sg77
(lp290
g52
ag79
ag91
ag25
ag12
ag79
ag60
ag12
ag40
ag60
ag12
asbatRp291
s(g32
(S'A'
S'A'
S'B'
S'A'
S'A'
S'B'
ttp292
g8
((ltRp293
s(g32
(S'B'
S'A'
ttp294
g8
((lp295
g1
(g73
g3
NtRp296
(dp297
g14
(S'B'
S'A'
tp298
sg16
I-188534470611740513
sg17
g32
sg77
(lp299
g52
ag40
ag91
ag25
ag12
asbatRp300
s(g32
(S'B'
S'A'
S'B'
S'A'
S'B'
S'A'
S'A'
ttp301
g8
((lp302
g1
(g73
g3
NtRp303
(dp304
g14
(S'B'
S'A'
S'B'
S'A'
S'B'
S'A'
S'A'
tp305
sg16
I3479348714036682181
sg17
g32
sg77
(lp306
g52
ag79
ag91
ag25
ag12
ag79
ag91
ag25
ag12
ag79
ag91
ag25
ag12
ag40
ag60
ag12
asbatRp307
s(g32
(S'A'
S'A'
S'B'
S'A'
S'B'
ttp308
g8
((ltRp309
s(g32
(S'A'
S'A'
S'A'
S'A'
S'A'
S'B'
S'A'
ttp310
g8
((lp311
g1
(g73
g3
NtRp312
(dp313
g14
(S'A'
S'A'
S'A'
S'A'
S'A'
S'B'
S'A'
tp314
sg16
I-5185347396350984849
sg17
g32
sg77
(lp315
g52
ag79
ag60
ag12
ag79
ag60
ag12
ag79
ag60
ag12
ag79
ag60
ag12
ag79
ag60
ag12
ag40
ag91
ag25
ag12
asbatRp316
s(g32
(S'A'
S'B'
S'A'
S'A'
S'B'
S'A'
ttp317
g8
((lp318
g1
(g73
g3
NtRp319
(dp320
g14
(S'A'
S'B'
S'A'
S'A'
S'B'
S'A'
tp321
sg16
I7428955275051761278
sg17
g32
sg77
(lp322
g52
ag79
ag60
ag12
ag79
ag91
ag25
ag12
ag79
ag60
ag12
ag40
ag91
ag25
ag12
asbatRp323
s(g32
(S'A'
S'A'
S'A'
S'A'
S'A'
S'B'
ttp324
g8
((ltRp325
s(g32
(S'B'
S'A'
S'A'
S'B'
S'A'
S'A'
ttp326
g8
((lp327
g1
(g73
g3
NtRp328
(dp329
g14
(S'B'
S'A'
S'A'
S'B'
S'A'
S'A'
tp330
sg16
I-3998695102976582966
sg17
g32
sg77
(lp331
g52
ag79
ag91
ag25
ag12
ag79
ag60
ag12
ag79
ag91
ag25
ag12
ag40
ag60
ag12
asbatRp332
s(g32
(S'A'
S'A'
S'A'
S'B'
S'A'
S'B'
ttp333
g8
((ltRp334
s(g32
(S'B'
S'A'
S'A'
S'B'
S'A'
S'B'
S'A'
ttp335
g8
((lp336
g1
(g73
g3
NtRp337
(dp338
g14
(S'B'
S'A'
S'A'
S'B'
S'A'
S'B'
S'A'
tp339
sg16
I5836723991697047043
sg17
g32
sg77
(lp340
g52
ag79
ag91
ag25
ag12
ag79
ag60
ag12
ag79
ag91
ag25
ag12
ag40
ag91
ag25
ag12
asbatRp341
s(g32
(S'A'
S'B'
S'A'
S'A'
S'A'
ttp342
g8
((lp343
g1
(g73
g3
NtRp344
(dp345
g14
(S'A'
S'B'
S'A'
S'A'
S'A'
tp346
sg16
I6000677576711744169
sg17
g32
sg77
(lp347
g52
ag79
ag60
ag12
ag79
ag91
ag25
ag12
ag79
ag60
ag12
ag40
ag60
ag12
asbatRp348
s(g32
(S'A'
S'A'
S'A'
S'A'
S'B'
S'A'
ttp349
g8
((lp350
g1
(g73
g3
NtRp351
(dp352
g14
(S'A'
S'A'
S'A'
S'A'
S'B'
S'A'
tp353
sg16
I-5198676683665610673
sg17
g32
sg77
(lp354
g52
ag79
ag60
ag12
ag79
ag60
ag12
ag79
ag60
ag12
ag79
ag60
ag12
ag40
ag91
ag25
ag12
asbatRp355
s(g32
(S'A'
S'B'
S'A'
S'A'
S'A'
S'B'
ttp356
g8
((ltRp357
s(g32
(S'A'
S'B'
S'A'
S'B'
S'A'
S'A'
S'A'
ttp358
g8
((lp359
g1
(g73
g3
NtRp360
(dp361
g14
(S'A'
S'B'
S'A'
S'B'
S'A'
S'A'
S'A'
tp362
sg16
I-744619435474226258
sg17
g32
sg77
(lp363
g52
ag79
ag60
ag12
ag79
ag91
ag25
ag12
ag79
ag91
ag25
ag12
ag79
ag60
ag12
ag40
ag60
ag12
asbatRp364
s(g32
(S'A'
S'A'
S'B'
ttp365
g8
((ltRp366
s(g32
(S'B'
S'A'
S'B'
S'A'
S'A'
ttp367
g8
((lp368
g1
(g73
g3
NtRp369
(dp370
g14
(S'B'
S'A'
S'B'
S'A'
S'A'
tp371
sg16
I5196590161345141076
sg17
g32
sg77
(lp372
g52
ag79
ag91
ag25
ag12
ag79
ag91
ag25
ag12
ag40
ag60
ag12
asbatRp373
s(g32
(S'A'
S'A'
S'B'
S'A'
S'A'
S'A'
S'A'
ttp374
g8
((lp375
g1
(g73
g3
NtRp376
(dp377
g14
(S'A'
S'A'
S'B'
S'A'
S'A'
S'A'
S'A'
tp378
sg16
I-8885462502842246567
sg17
g32
sg77
(lp379
g52
ag79
ag60
ag12
ag79
ag60
ag12
ag79
ag91
ag25
ag12
ag79
ag60
ag12
ag79
ag60
ag12
ag40
ag60
ag12
asbatRp380
s(g32
(S'A'
S'A'
S'B'
S'A'
S'A'
S'B'
S'A'
ttp381
g8
((lp382
g1
(g73
g3
NtRp383
(dp384
g14
(S'A'
S'A'
S'B'
S'A'
S'A'
S'B'
S'A'
tp385
sg16
I-7707489067786191238
sg17
g32
sg77
(lp386
g52
ag79
ag60
ag12
ag79
ag60
ag12
ag79
ag91
ag25
ag12
ag79
ag60
ag12
ag40
ag91
ag25
ag12
asbatRp387
s(g32
(S'B'
S'A'
S'A'
S'A'
S'A'
ttp388
g8
((lp389
g1
(g73
g3
NtRp390
(dp391
g14
(S'B'
S'A'
S'A'
S'A'
S'A'
tp392
sg16
I-8966159728651704781
sg17
g32
sg77
(lp393
g52
ag79
ag91
ag25
ag12
ag79
ag60
ag12
ag79
ag60
ag12
ag40
ag60
ag12
asbatRp394
s(g32
(S'A'
S'A'
S'A'
S'A'
S'A'
S'A'
S'A'
ttp395
g8
((lp396
g1
(g73
g3
NtRp397
(dp398
g14
(S'A'
S'A'
S'A'
S'A'
S'A'
S'A'
S'A'
tp399
sg16
I-6433852087374260756
sg17
g32
sg77
(lp400
g52
ag79
ag60
ag12
ag79
ag60
ag12
ag79
ag60
ag12
ag79
ag60
ag12
ag79
ag60
ag12
ag79
ag60
ag12
ag40
ag60
ag12
asbatRp401
s(g32
(S'A'
S'A'
S'A'
ttp402
g8
((lp403
g1
(g73
g3
NtRp404
(dp405
g14
(S'A'
S'A'
S'A'
tp406
sg16
I-2758676094481755796
sg17
g32
sg77
(lp407
g52
ag79
ag60
ag12
ag79
ag60
ag12
ag40
ag60
ag12
asbatRp408
s(g32
(S'B'
S'A'
S'B'
S'A'
S'A'
S'B'
ttp409
g8
((ltRp410
s(g32
(S'A'
S'A'
S'B'
S'A'
S'B'
S'A'
ttp411
g8
((lp412
g1
(g73
g3
NtRp413
(dp414
g14
(S'A'
S'A'
S'B'
S'A'
S'B'
S'A'
tp415
sg16
I-4883885191927071982
sg17
g32
sg77
(lp416
g52
ag79
ag60
ag12
ag79
ag60
ag12
ag79
ag91
ag25
ag12
ag40
ag91
ag25
ag12
asbatRp417
s(g32
(S'A'
S'B'
S'A'
S'A'
S'A'
S'B'
S'A'
ttp418
g8
((lp419
g1
(g73
g3
NtRp420
(dp421
g14
(S'A'
S'B'
S'A'
S'A'
S'A'
S'B'
S'A'
tp422
sg16
I2366317421772867564
sg17
g32
sg77
(lp423
g52
ag79
ag60
ag12
ag79
ag91
ag25
ag12
ag79
ag60
ag12
ag79
ag60
ag12
ag40
ag91
ag25
ag12
asbatRp424
s(g32
(S'A'
S'B'
S'A'
S'A'
ttp425
g8
((lp426
g1
(g73
g3
NtRp427
(dp428
g14
(S'A'
S'B'
S'A'
S'A'
tp429
sg16
I-4753585554823192757
sg17
g32
sg77
(lp430
g52
ag79
ag60
ag12
ag79
ag91
ag25
ag12
ag40
ag60
ag12
asbatRp431
s(g32
(S'B'
S'A'
S'A'
S'B'
S'A'
ttp432
g8
((lp433
g1
(g73
g3
NtRp434
(dp435
g14
(S'B'
S'A'
S'A'
S'B'
S'A'
tp436
sg16
I-1018841582885434284
sg17
g32
sg77
(lp437
g52
ag79
ag91
ag25
ag12
ag79
ag60
ag12
ag40
ag91
ag25
ag12
asbatRp438
s(g32
(S'B'
S'A'
S'A'
S'A'
S'B'
S'A'
S'A'
ttp439
g8
((lp440
g1
(g73
g3
NtRp441
(dp442
g14
(S'B'
S'A'
S'A'
S'A'
S'B'
S'A'
S'A'
tp443
sg16
I2706060825806157672
sg17
g32
sg77
(lp444
g52
ag79
ag91
ag25
ag12
ag79
ag60
ag12
ag79
ag60
ag12
ag79
ag91
ag25
ag12
ag40
ag60
ag12
asbatRp445
s(g32
(S'B'
S'A'
S'B'
S'A'
S'B'
S'A'
ttp446
g8
((lp447
g1
(g73
g3
NtRp448
(dp449
g14
(S'B'
S'A'
S'B'
S'A'
S'B'
S'A'
tp450
sg16
I6010726330704298429
sg17
g32
sg77
(lp451
g52
ag79
ag91
ag25
ag12
ag79
ag91
ag25
ag12
ag40
ag91
ag25
ag12
asbatRp452
s(g32
(S'B'
S'A'
S'A'
S'A'
S'B'
ttp453
g8
((ltRp454
s(g32
(S'B'
ttp455
g8
((ltRp456
s(g32
(S'A'
S'B'
S'A'
S'A'
S'B'
S'A'
S'A'
ttp457
g8
((lp458
g1
(g73
g3
NtRp459
(dp460
g14
(S'A'
S'B'
S'A'
S'A'
S'B'
S'A'
S'A'
tp461
sg16
I-5417154281763030026
sg17
g32
sg77
(lp462
g52
ag79
ag60
ag12
ag79
ag91
ag25
ag12
ag79
ag60
ag12
ag79
ag91
ag25
ag12
ag40
ag60
ag12
asbatRp463
s(g32
(S'A'
S'A'
ttp464
g8
((lp465
g1
(g73
g3
NtRp466
(dp467
g14
(S'A'
S'A'
tp468
sg16
I-6478850639629933412
sg17
g32
sg77
(lp469
g52
ag79
ag60
ag12
ag40
ag60
ag12
asbatRp470
s(g32
(S'B'
S'A'
S'A'
S'A'
S'A'
S'A'
ttp471
g8
((lp472
g1
(g73
g3
NtRp473
(dp474
g14
(S'B'
S'A'
S'A'
S'A'
S'A'
S'A'
tp475
sg16
I-4041359322255862097
sg17
g32
sg77
(lp476
g52
ag79
ag91
ag25
ag12
ag79
ag60
ag12
ag79
ag60
ag12
ag79
ag60
ag12
ag40
ag60
ag12
asbatRp477
s(g32
(S'B'
S'A'
S'A'
S'A'
S'A'
S'A'
S'A'
ttp478
g8
((lp479
g1
(g73
g3
NtRp480
(dp481
g14
(S'B'
S'A'
S'A'
S'A'
S'A'
S'A'
S'A'
tp482
sg16
I1376068153471606485
sg17
g32
sg77
(lp483
g52
ag79
ag91
ag25
ag12
ag79
ag60
ag12
ag79
ag60
ag12
ag79
ag60
ag12
ag79
ag60
ag12
ag40
ag60
ag12
asbatRp484
s(g32
(S'A'
S'B'
S'A'
S'B'
ttp485
g8
((ltRp486
s(g32
(S'B'
S'A'
S'B'
S'A'
S'A'
S'B'
S'A'
ttp487
g8
((lp488
g1
(g73
g3
NtRp489
(dp490
g14
(S'B'
S'A'
S'B'
S'A'
S'A'
S'B'
S'A'
tp491
sg16
I287995444404125947
sg17
g32
sg77
(lp492
g52
ag79
ag91
ag25
ag12
ag79
ag91
ag25
ag12
ag79
ag60
ag12
ag40
ag91
ag25
ag12
asbatRp493
s(g32
(S'B'
S'A'
S'B'
S'A'
S'A'
S'A'
ttp494
g8
((lp495
g1
(g73
g3
NtRp496
(dp497
g14
(S'B'
S'A'
S'B'
S'A'
S'A'
S'A'
tp498
sg16
I-480415228659166578
sg17
g32
sg77
(lp499
g52
ag79
ag91
ag25
ag12
ag79
ag91
ag25
ag12
ag79
ag60
ag12
ag40
ag60
ag12
asbatRp500
ssS'_batch_size'
p501
I10000
sS'_adapted_non_terminals'
p502
g8
((lp503
g1
(g18
g3
NtRp504
(dp505
g21
S'Word'
p506
sg16
I-7487829120334232892
sbatRp507
sS'_ordered_adaptor_down_top'
p508
(lp509
g32
asS'_number_of_productions_prime'
p510
I0
sS'_pcfg_sufficient_statistics_of_lhs'
p511
(dp512
g28
cnumpy.core.multiarray
_reconstruct
p513
(cnumpy
ndarray
p514
(I0
tS'b'
tRp515
(I1
(I1
I1
tcnumpy
dtype
p516
(S'f8'
I0
I1
tRp517
(I3
S'<'
NNNI-1
I-1
I0
tbI00
S'\x00\x00\x00\x00\x00\x00\x00\x00'
tbsg32
g513
(g514
(I0
tS'b'
tRp518
(I1
(I1
I1
tg517
I00
S'\x00\x00\x00\x00\x00\x00\x00\x00'
tbsg43
g513
(g514
(I0
tS'b'
tRp519
(I1
(I1
I2
tg517
I00
S'\x00\x00\x00\x00\x00\x00\x00\x00\x00\x00\x00\x00\x00\x00\x00\x00'
tbsg19
g513
(g514
(I0
tS'b'
tRp520
(I1
(I1
I1
tg517
I00
S'\x00\x00\x00\x00\x00\x00\x00\x00'
tbsg63
g513
(g514
(I0
tS'b'
tRp521
(I1
(I1
I2
tg517
I00
S'\x00\x00\x00\x00\x00\x00\x00\x00\x00\x00\x00\x00\x00\x00\x00\x00'
tbssS'_incremental_build_up'
p522
I00
sS'_active_adapted_production_to_nu_index_of_lhs'
p523
(dp524
g504
(dp525
g140
I44
sg337
I34
sg397
I41
sg496
I11
sg413
I47
sg174
I26
sg312
I50
sg466
I8
sg204
I19
sg197
I16
sg160
I33
sg344
I21
sg131
I2
sg266
I31
sg360
I17
sg473
I18
sg211
I29
sg390
I24
sg153
I22
sg296
I6
sg448
I28
sg434
I25
sg231
I39
sg303
I7
sg280
I46
sg224
I14
sg328
I32
sg427
I12
sg115
I5
sg351
I20
sg245
I51
sg369
I13
sg480
I40
sg259
I30
sg376
I48
sg181
I9
sg273
I45
sg420
I49
sg190
I0
sg441
I27
sg252
I37
sg404
I4
sg74
I23
sg167
I3
sg238
I42
sg124
I1
sg459
I15
sg287
I10
sg383
I43
sg489
I35
sg108
I36
sg319
I38
sssS'_level_to_non_terminal'
p526
g7
(g8
tRp527
I0
g8
((lp528
g32
atRp529
sI1
g8
((lp530
g48
atRp531
sI2
g8
((lp532
g36
atRp533
sI3
g8
((lp534
g93
ag56
atRp535
ssS'_truncation_level'
p536
(dp537
g504
I1500
ssS'_alpha_theta'
p538
(dp539
g28
g513
(g514
(I0
tS'b'
tRp540
(I1
(I1
I1
tg517
I00
S'\x00\x00\x00\x00\x00\x00\xf0?'
tbsg32
g513
(g514
(I0
tS'b'
tRp541
(I1
(I1
I1
tg517
I00
S'\x00\x00\x00\x00\x00\x00\xf0?'
tbsg43
g513
(g514
(I0
tS'b'
tRp542
(I1
(I1
I2
tg517
I00
S'\x00\x00\x00\x00\x00\x00\xe0?\x00\x00\x00\x00\x00\x00\xe0?'
tbsg19
g513
(g514
(I0
tS'b'
tRp543
(I1
(I1
I1
tg517
I00
S'\x00\x00\x00\x00\x00\x00\xf0?'
tbsg63
g513
(g514
(I0
tS'b'
tRp544
(I1
(I1
I2
tg517
I00
S'\x00\x00\x00\x00\x00\x00\xe0?\x00\x00\x00\x00\x00\x00\xe0?'
tbssS'_table_relabel_interval'
p545
I500
sS'_lhs_rhs_to_pcfg_production'
p546
g7
(tRp547
(g32
g54
tp548
g52
s(g100
g99
tp549
g91
s(g19
g15
tp550
g12
s(g63
g62
tp551
g60
s(g88
g87
tp552
g79
s(g43
g42
tp553
g40
s(g28
g27
tp554
g25
ssS'_pcfg_production_usage_counts_of_lhs'
p555
(dp556
g28
g513
(g514
(I0
tS'b'
tRp557
(I1
(I1
I1
tg516
(S'i8'
I0
I1
tRp558
(I3
S'<'
NNNI-1
I-1
I0
tbI00
S'L\x00\x00\x00\x00\x00\x00\x00'
tbsg32
g513
(g514
(I0
tS'b'
tRp559
(I1
(I1
I1
tg558
I00
S'4\x00\x00\x00\x00\x00\x00\x00'
tbsg43
g513
(g514
(I0
tS'b'
tRp560
(I1
(I1
I2
tg558
I00
S'4\x00\x00\x00\x00\x00\x00\x00\xaa\x00\x00\x00\x00\x00\x00\x00'
tbsg19
g513
(g514
(I0
tS'b'
tRp561
(I1
(I1
I1
tg558
I00
S'\xde\x00\x00\x00\x00\x00\x00\x00'
tbsg63
g513
(g514
(I0
tS'b'
tRp562
(I1
(I1
I2
tg558
I00
S'\x92\x00\x00\x00\x00\x00\x00\x00L\x00\x00\x00\x00\x00\x00\x00'
tbssS'_gamma'
p563
(dp564
g28
g513
(g514
(I0
tS'b'
tRp565
(I1
(I1
I1
tg517
I00
S'\x00\x00\x00\x00\x00@S@'
tbsg32
g513
(g514
(I0
tS'b'
tRp566
(I1
(I1
I1
tg517
I00
S'\x00\x00\x00\x00\x00\x80J@'
tbsg43
g513
(g514
(I0
tS'b'
tRp567
(I1
(I1
I2
tg517
I00
S'\x00\x00\x00\x00\x00@J@\x00\x00\x00\x00\x00Pe@'
tbsg19
g513
(g514
(I0
tS'b'
tRp568
(I1
(I1
I1
tg517
I00
S'\x00\x00\x00\x00\x00\xe0k@'
tbsg63
g513
(g514
(I0
tS'b'
tRp569
(I1
(I1
I2
tg517
I00
S'\x00\x00\x00\x00\x00Pb@\x00\x00\x00\x00\x00 S@'
tbssS'_reorder_interval'
p570
I10
sS'_number_of_samples'
p571
I10
sS'_lhs_to_pcfg_production'
p572
g7
(g8
tRp573
g28
g8
((lp574
g25
atRp575
sg19
g8
((lp576
g12
atRp577
sg43
g8
((lp578
g40
ag79
atRp579
sg32
g8
((lp580
g52
atRp581
sg63
g8
((lp582
g60
ag91
atRp583
ssS'_alpha_pi'
p584
(dp585
g504
F100
ssS'_active_adapted_production_sufficient_statistics_of_lhs'
p586
(dp587
g504
g513
(g514
(I0
tS'b'
tRp588
(I1
(I1
I52
tg517
I00
S'\x00\x00\x00\x00\x00\x00\x00\x00\x00\x00\x00\x00\x00\x00\x00\x00\x00\x00\x00\x00\x00\x00\x00\x00\x00\x00\x00\x00\x00\x00\x00\x00\x00\x00\x00\x00\x00\x00\x00\x00\x00\x00\x00\x00\x00\x00\x00\x00\x00\x00\x00\x00\x00\x00\x00\x00\x00\x00\x00\x00\x00\x00\x00\x00\x00\x00\x00\x00\x00\x00\x00\x00\x00\x00\x00\x00\x00\x00\x00\x00\x00\x00\x00\x00\x00\x00\x00\x00\x00\x00\x00\x00\x00\x00\x00\x00\x00\x00\x00\x00\x00\x00\x00\x00\x00\x00\x00\x00\x00\x00\x00\x00\x00\x00\x00\x00\x00\x00\x00\x00\x00\x00\x00\x00\x00\x00\x00\x00\x00\x00\x00\x00\x00\x00\x00\x00\x00\x00\x00\x00\x00\x00\x00\x00\x00\x00\x00\x00\x00\x00\x00\x00\x00\x00\x00\x00\x00\x00\x00\x00\x00\x00\x00\x00\x00\x00\x00\x00\x00\x00\x00\x00\x00\x00\x00\x00\x00\x00\x00\x00\x00\x00\x00\x00\x00\x00\x00\x00\x00\x00\x00\x00\x00\x00\x00\x00\x00\x00\x00\x00\x00\x00\x00\x00\x00\x00\x00\x00\x00\x00\x00\x00\x00\x00\x00\x00\x00\x00\x00\x00\x00\x00\x00\x00\x00\x00\x00\x00\x00\x00\x00\x00\x00\x00\x00\x00\x00\x00\x00\x00\x00\x00\x00\x00\x00\x00\x00\x00\x00\x00\x00\x00\x00\x00\x00\x00\x00\x00\x00\x00\x00\x00\x00\x00\x00\x00\x00\x00\x00\x00\x00\x00\x00\x00\x00\x00\x00\x00\x00\x00\x00\x00\x00\x00\x00\x00\x00\x00\x00\x00\x00\x00\x00\x00\x00\x00\x00\x00\x00\x00\x00\x00\x00\x00\x00\x00\x00\x00\x00\x00\x00\x00\x00\x00\x00\x00\x00\x00\x00\x00\x00\x00\x00\x00\x00\x00\x00\x00\x00\x00\x00\x00\x00\x00\x00\x00\x00\x00\x00\x00\x00\x00\x00\x00\x00\x00\x00\x00\x00\x00\x00\x00\x00\x00\x00\x00\x00\x00\x00\x00\x00\x00\x00\x00\x00\x00\x00\x00\x00\x00\x00\x00\x00\x00\x00\x00\x00\x00\x00\x00\x00\x00\x00\x00\x00\x00\x00\x00\x00\x00\x00\x00\x00\x00\x00\x00\x00\x00\x00\x00\x00\x00\x00\x00\x00\x00\x00\x00\x00\x00\x00\x00\x00\x00\x00\x00'
tbssS'_kappa'
p589
F0.75
sS'_number_of_strings'
p590
I10000
sS'_initial_table_relable'
p591
I00
sS'_ordered_adaptor_top_down'
p592
(lp593
g32
asS'_nu_index_to_active_adapted_production_of_lhs'
p594
(dp595
g504
(dp596
I0
g190
sI1
g124
sI2
g131
sI3
g167
sI4
g404
sI5
g115
sI6
g296
sI7
g303
sI8
g466
sI9
g181
sI10
g287
sI11
g496
sI12
g427
sI13
g369
sI14
g224
sI15
g459
sI16
g197
sI17
g360
sI18
g473
sI19
g204
sI20
g351
sI21
g344
sI22
g153
sI23
g74
sI24
g390
sI25
g434
sI26
g174
sI27
g441
sI28
g448
sI29
g211
sI30
g259
sI31
g266
sI32
g328
sI33
g160
sI34
g337
sI35
g489
sI36
g108
sI37
g252
sI38
g319
sI39
g231
sI40
g480
sI41
g397
sI42
g238
sI43
g383
sI44
g140
sI45
g273
sI46
g280
sI47
g413
sI48
g376
sI49
g420
sI50
g312
sI51
g245
sssS'_gamma_index_to_pcfg_production_of_lhs'
p597
g7
(g7
tRp598
g28
g7
(tRp599
I0
g25
ssg19
g7
(tRp600
I0
g12
ssg43
g7
(tRp601
I0
g40
sI1
g79
ssg32
g7
(tRp602
I0
g52
ssg63
g7
(tRp603
I0
g60
sI1
g91
sssS'_active_adapted_production_usage_counts_of_lhs'
p604
(dp605
g504
g513
(g514
(I0
tS'b'
tRp606
(I1
(I1
I52
tg517
I00
S'\x00\x00\x00\x00\x00\x00\x00\x00\x00\x00\x00\x00\x00\x00\x00\x00\x00\x00\x00\x00\x00\x00\x00\x00\x00\x00\x00\x00\x00\x00\x00\x00\x00\x00\x00\x00\x00\x00\x00\x00\x00\x00\x00\x00\x00\x00\x00\x00\x00\x00\x00\x00\x00\x00\x00\x00\x00\x00\x00\x00\x00\x00\x00\x00\x00\x00\x00\x00\x00\x00\x00\x00\x00\x00\x00\x00\x00\x00\x00\x00\x00\x00\x00\x00\x00\x00\x00\x00\x00\x00\x00\x00\x00\x00\x00\x00\x00\x00\x00\x00\x00\x00\x00\x00\x00\x00\x00\x00\x00\x00\x00\x00\x00\x00\x00\x00\x00\x00\x00\x00\x00\x00\x00\x00\x00\x00\x00\x00\x00\x00\x00\x00\x00\x00\x00\x00\x00\x00\x00\x00\x00\x00\x00\x00\x00\x00\x00\x00\x00\x00\x00\x00\x00\x00\x00\x00\x00\x00\x00\x00\x00\x00\x00\x00\x00\x00\x00\x00\x00\x00\x00\x00\x00\x00\x00\x00\x00\x00\x00\x00\x00\x00\x00\x00\x00\x00\x00\x00\x00\x00\x00\x00\x00\x00\x00\x00\x00\x00\x00\x00\x00\x00\x00\x00\x00\x00\x00\x00\x00\x00\x00\x00\x00\x00\x00\x00\x00\x00\x00\x00\x00\x00\x00\x00\x00\x00\x00\x00\x00\x00\x00\x00\x00\x00\x00\x00\x00\x00\x00\x00\x00\x00\x00\x00\x00\x00\x00\x00\x00\x00\x00\x00\x00\x00\x00\x00\x00\x00\x00\x00\x00\x00\x00\x00\x00\x00\x00\x00\x00\x00\x00\x00\x00\x00\x00\x00\x00\x00\x00\x00\x00\x00\x00\x00\x00\x00\x00\x00\x00\x00\x00\x00\x00\x00\x00\x00\x00\x00\x00\x00\x00\x00\x00\x00\x00\x00\x00\x00\x00\x00\x00\x00\x00\x00\x00\x00\x00\x00\x00\x00\x00\x00\x00\x00\x00\x00\x00\x00\x00\x00\x00\x00\x00\x00\x00\x00\x00\x00\x00\x00\x00\x00\x00\x00\x00\x00\x00\x00\x00\x00\x00\x00\x00\x00\x00\x00\x00\x00\x00\x00\x00\x00\x00\x00\x00\x00\x00\x00\x00\x00\x00\x00\x00\x00\x00\x00\x00\x00\x00\x00\x00\x00\x00\x00\x00\x00\x00\x00\x00\x00\x00\x00\x00\x00\x00\x00\x00\x00\x00\x00\x00\x00\x00\x00\x00\x00\x00\x00\x00\x00\x00\x00\x00\x00\x00\x00'
tbssS'_rhs_to_pcfg_production'
p607
g7
(g8
tRp608
g42
g8
((lp609
g40
atRp610
sg15
g8
((lp611
g12
atRp612
sg27
g8
((lp613
g25
atRp614
sg99
g8
((lp615
g91
atRp616
sg87
g8
((lp617
g79
atRp618
sg54
g8
((lp619
g52
atRp620
sg62
g8
((lp621
g60
atRp622
ssS'_table_relabel_iterations'
p623
I0
sS'_adapted_production_dependents_of_adapted_production'
p624
g7
(g8
tRp625
sS'_non_terminal_to_level'
p626
(dp627
g93
I3
sg56
I3
sg48
I1
sg32
I0
sg36
I2
ssS'_start_symbol'
p628
g32
sS'_non_terminals'
p629
g8
((lp630
g28
ag19
ag43
ag32
ag63
atRp631
sS'_adapted_production_usage_freqdist'
p632
cnltk.probability
FreqDist
p633
((dtRp634
sS'_lhs_to_active_adapted_production'
p635
g7
(g8
tRp636
g32
g8
((lp637
g140
ag337
ag397
ag496
ag413
ag174
ag312
ag466
ag204
ag197
ag160
ag344
ag131
ag266
ag360
ag473
ag211
ag390
ag153
ag296
ag448
ag434
ag231
ag303
ag280
ag224
ag328
ag427
ag115
ag351
ag245
ag369
ag480
ag259
ag376
ag181
ag273
ag420
ag190
ag441
ag252
ag404
ag74
ag167
ag238
ag124
ag459
ag287
ag383
ag489
ag108
ag319
atRp638
ssS'_ranking_statistics_scale'
p639
F22.627416997969519
sS'_nu_1'
p640
(dp641
g504
g513
(g514
(I0
tS'b'
tRp642
(I1
(I1
I52
tg517
I00
S'\x00\x00\x00\x00\x00\x00\xf0?\x00\x00\x00\x00\x00\x00\xf0?\x00\x00\x00\x00\x00\x00\xf0?\x00\x00\x00\x00\x00\x00\xf0?\x00\x00\x00\x00\x00\x00\xf0?\x00\x00\x00\x00\x00\x00\xf0?\x00\x00\x00\x00\x00\x00\xf0?\x00\x00\x00\x00\x00\x00\xf0?\x00\x00\x00\x00\x00\x00\xf0?\x00\x00\x00\x00\x00\x00\xf0?\x00\x00\x00\x00\x00\x00\xf0?\x00\x00\x00\x00\x00\x00\xf0?\x00\x00\x00\x00\x00\x00\xf0?\x00\x00\x00\x00\x00\x00\xf0?\x00\x00\x00\x00\x00\x00\xf0?\x00\x00\x00\x00\x00\x00\xf0?\x00\x00\x00\x00\x00\x00\xf0?\x00\x00\x00\x00\x00\x00\xf0?\x00\x00\x00\x00\x00\x00\xf0?\x00\x00\x00\x00\x00\x00\xf0?\x00\x00\x00\x00\x00\x00\xf0?\x00\x00\x00\x00\x00\x00\xf0?\x00\x00\x00\x00\x00\x00\xf0?\x00\x00\x00\x00\x00\x00\xf0?\x00\x00\x00\x00\x00\x00\xf0?\x00\x00\x00\x00\x00\x00\xf0?\x00\x00\x00\x00\x00\x00\xf0?\x00\x00\x00\x00\x00\x00\xf0?\x00\x00\x00\x00\x00\x00\xf0?\x00\x00\x00\x00\x00\x00\xf0?\x00\x00\x00\x00\x00\x00\xf0?\x00\x00\x00\x00\x00\x00\xf0?\x00\x00\x00\x00\x00\x00\xf0?\x00\x00\x00\x00\x00\x00\xf0?\x00\x00\x00\x00\x00\x00\xf0?\x00\x00\x00\x00\x00\x00\xf0?\x00\x00\x00\x00\x00\x00\xf0?\x00\x00\x00\x00\x00\x00\xf0?\x00\x00\x00\x00\x00\x00\xf0?\x00\x00\x00\x00\x00\x00\xf0?\x00\x00\x00\x00\x00\x00\xf0?\x00\x00\x00\x00\x00\x00\xf0?\x00\x00\x00\x00\x00\x00\xf0?\x00\x00\x00\x00\x00\x00\xf0?\x00\x00\x00\x00\x00\x00\xf0?\x00\x00\x00\x00\x00\x00\xf0?\x00\x00\x00\x00\x00\x00\xf0?\x00\x00\x00\x00\x00\x00\xf0?\x00\x00\x00\x00\x00\x00\xf0?\x00\x00\x00\x00\x00\x00\xf0?\x00\x00\x00\x00\x00\x00\xf0?\x00\x00\x00\x00\x00\x00\xf0?'
tbssS'_counter'
p643
I1
sS'_pcfg_production_to_gamma_index_of_lhs'
p644
g7
(g7
tRp645
g28
g7
(tRp646
g25
I0
ssg19
g7
(tRp647
g12
I0
ssg43
g7
(tRp648
g40
I0
sg79
I1
ssg32
g7
(tRp649
g52
I0
ssg63
g7
(tRp650
g60
I0
sg91
I1
sssS'_pcfg_productions'
p651
g7
(g8
tRp652
(g32
g54
tp653
g8
((lp654
g52
atRp655
s(g100
g99
tp656
g8
((lp657
g91
atRp658
s(g19
g15
tp659
g8
((lp660
g12
atRp661
s(g63
g62
tp662
g8
((lp663
g60
atRp664
s(g88
g87
tp665
g8
((lp666
g79
atRp667
s(g43
g42
tp668
g8
((lp669
g40
atRp670
s(g28
g27
tp671
g8
((lp672
g25
atRp673
ssS'_nu_2'
p674
(dp675
g504
g513
(g514
(I0
tS'b'
tRp676
(I1
(I1
I52
tg517
I00
S'\x00\x00\x00\x00\x00\x00Y@\x00\x00\x00\x00\x00\x00Y@\x00\x00\x00\x00\x00\x00Y@\x00\x00\x00\x00\x00\x00Y@\x00\x00\x00\x00\x00\x00Y@\x00\x00\x00\x00\x00\x00Y@\x00\x00\x00\x00\x00\x00Y@\x00\x00\x00\x00\x00\x00Y@\x00\x00\x00\x00\x00\x00Y@\x00\x00\x00\x00\x00\x00Y@\x00\x00\x00\x00\x00\x00Y@\x00\x00\x00\x00\x00\x00Y@\x00\x00\x00\x00\x00\x00Y@\x00\x00\x00\x00\x00\x00Y@\x00\x00\x00\x00\x00\x00Y@\x00\x00\x00\x00\x00\x00Y@\x00\x00\x00\x00\x00\x00Y@\x00\x00\x00\x00\x00\x00Y@\x00\x00\x00\x00\x00\x00Y@\x00\x00\x00\x00\x00\x00Y@\x00\x00\x00\x00\x00\x00Y@\x00\x00\x00\x00\x00\x00Y@\x00\x00\x00\x00\x00\x00Y@\x00\x00\x00\x00\x00\x00Y@\x00\x00\x00\x00\x00\x00Y@\x00\x00\x00\x00\x00\x00Y@\x00\x00\x00\x00\x00\x00Y@\x00\x00\x00\x00\x00\x00Y@\x00\x00\x00\x00\x00\x00Y@\x00\x00\x00\x00\x00\x00Y@\x00\x00\x00\x00\x00\x00Y@\x00\x00\x00\x00\x00\x00Y@\x00\x00\x00\x00\x00\x00Y@\x00\x00\x00\x00\x00\x00Y@\x00\x00\x00\x00\x00\x00Y@\x00\x00\x00\x00\x00\x00Y@\x00\x00\x00\x00\x00\x00Y@\x00\x00\x00\x00\x00\x00Y@\x00\x00\x00\x00\x00\x00Y@\x00\x00\x00\x00\x00\x00Y@\x00\x00\x00\x00\x00\x00Y@\x00\x00\x00\x00\x00\x00Y@\x00\x00\x00\x00\x00\x00Y@\x00\x00\x00\x00\x00\x00Y@\x00\x00\x00\x00\x00\x00Y@\x00\x00\x00\x00\x00\x00Y@\x00\x00\x00\x00\x00\x00Y@\x00\x00\x00\x00\x00\x00Y@\x00\x00\x00\x00\x00\x00Y@\x00\x00\x00\x00\x00\x00Y@\x00\x00\x00\x00\x00\x00Y@\x00\x00\x00\x00\x00\x00Y@'
tbssS'_beta_pi'
p677
(dp678
g504
F0
ssS'_active_adapted_production_length_of_lhs'
p679
(dp680
g504
g513
(g514
(I0
tS'b'
tRp681
(I1
(I1
I52
tg517
I00
S'\x00\x00\x00\x00\x00\x00\x08@\x00\x00\x00\x00\x00\x00\x1c@\x00\x00\x00\x00\x00\x00\x10@\x00\x00\x00\x00\x00\x00\x10@\x00\x00\x00\x00\x00\x00\x08@\x00\x00\x00\x00\x00\x00\x10@\x00\x00\x00\x00\x00\x00\x00@\x00\x00\x00\x00\x00\x00\x1c@\x00\x00\x00\x00\x00\x00\x00@\x00\x00\x00\x00\x00\x00\x14@\x00\x00\x00\x00\x00\x00\x10@\x00\x00\x00\x00\x00\x00\x18@\x00\x00\x00\x00\x00\x00\x10@\x00\x00\x00\x00\x00\x00\x14@\x00\x00\x00\x00\x00\x00\x1c@\x00\x00\x00\x00\x00\x00\x1c@\x00\x00\x00\x00\x00\x00\x08@\x00\x00\x00\x00\x00\x00\x1c@\x00\x00\x00\x00\x00\x00\x18@\x00\x00\x00\x00\x00\x00\x14@\x00\x00\x00\x00\x00\x00\x18@\x00\x00\x00\x00\x00\x00\x14@\x00\x00\x00\x00\x00\x00\x18@\x00\x00\x00\x00\x00\x00\x1c@\x00\x00\x00\x00\x00\x00\x14@\x00\x00\x00\x00\x00\x00\x14@\x00\x00\x00\x00\x00\x00\x18@\x00\x00\x00\x00\x00\x00\x1c@\x00\x00\x00\x00\x00\x00\x18@\x00\x00\x00\x00\x00\x00\x1c@\x00\x00\x00\x00\x00\x00\x1c@\x00\x00\x00\x00\x00\x00\x18@\x00\x00\x00\x00\x00\x00\x18@\x00\x00\x00\x00\x00\x00\x14@\x00\x00\x00\x00\x00\x00\x1c@\x00\x00\x00\x00\x00\x00\x1c@\x00\x00\x00\x00\x00\x00\x14@\x00\x00\x00\x00\x00\x00\x1c@\x00\x00\x00\x00\x00\x00\x18@\x00\x00\x00\x00\x00\x00\x18@\x00\x00\x00\x00\x00\x00\x1c@\x00\x00\x00\x00\x00\x00\x1c@\x00\x00\x00\x00\x00\x00\x1c@\x00\x00\x00\x00\x00\x00\x1c@\x00\x00\x00\x00\x00\x00\x1c@\x00\x00\x00\x00\x00\x00\x18@\x00\x00\x00\x00\x00\x00\x18@\x00\x00\x00\x00\x00\x00\x18@\x00\x00\x00\x00\x00\x00\x1c@\x00\x00\x00\x00\x00\x00\x1c@\x00\x00\x00\x00\x00\x00\x1c@\x00\x00\x00\x00\x00\x00\x1c@'
tbssS'_epsilon'
p682
F0.043683254068210421
sS'_terminals'
p683
g8
((lp684
VA
aVB
atRp685
sS'_adapted_production_sufficient_statistics_of_lhs'
p686
g7
(g633
tRp687
sS'_rhs_to_active_adapted_production'
p688
g7
(g8
tRp689
(S'B'
S'A'
S'B'
S'A'
S'A'
S'A'
tp690
g8
((lp691
g496
atRp692
s(S'A'
S'A'
S'A'
S'B'
S'A'
S'A'
tp693
g8
((lp694
g153
atRp695
s(S'A'
S'B'
S'A'
S'A'
tp696
g8
((lp697
g427
atRp698
s(S'A'
S'A'
S'A'
S'B'
S'A'
S'B'
S'A'
tp699
g8
((lp700
g124
atRp701
s(S'B'
S'A'
S'A'
S'B'
S'A'
tp702
g8
((lp703
g434
atRp704
s(S'B'
S'A'
tp705
g8
((lp706
g296
atRp707
s(S'A'
S'B'
S'A'
S'B'
S'A'
S'B'
S'A'
tp708
g8
((lp709
g74
atRp710
s(S'A'
S'B'
S'A'
S'B'
S'A'
S'A'
tp711
g8
((lp712
g174
atRp713
s(S'B'
S'A'
S'A'
S'B'
S'A'
S'B'
S'A'
tp714
g8
((lp715
g337
atRp716
s(S'A'
S'B'
S'A'
S'B'
S'A'
tp717
g8
((lp718
g204
atRp719
s(S'B'
S'A'
S'B'
S'A'
S'B'
S'A'
S'A'
tp720
g8
((lp721
g303
atRp722
s(S'A'
S'A'
S'A'
tp723
g8
((lp724
g404
atRp725
s(S'A'
S'A'
S'B'
S'A'
S'A'
tp726
g8
((lp727
g181
atRp728
s(S'A'
S'B'
S'A'
S'A'
S'A'
tp729
g8
((lp730
g344
atRp731
s(S'B'
S'A'
S'A'
S'A'
S'A'
S'A'
tp732
g8
((lp733
g473
atRp734
s(S'A'
S'B'
S'A'
S'B'
S'A'
S'A'
S'A'
tp735
g8
((lp736
g360
atRp737
s(S'B'
S'A'
S'A'
S'A'
S'A'
S'A'
S'A'
tp738
g8
((lp739
g480
atRp740
s(S'A'
S'A'
S'A'
S'A'
S'A'
tp741
g8
((lp742
g108
atRp743
s(S'A'
S'A'
S'B'
S'A'
S'B'
S'A'
tp744
g8
((lp745
g413
atRp746
s(S'A'
S'A'
S'A'
S'A'
S'A'
S'A'
S'A'
tp747
g8
((lp748
g397
atRp749
s(S'B'
S'A'
S'A'
S'B'
S'A'
S'A'
tp750
g8
((lp751
g328
atRp752
s(S'A'
S'B'
S'A'
tp753
g8
((lp754
g197
atRp755
s(S'B'
S'A'
S'A'
tp756
g8
((lp757
g190
atRp758
s(S'B'
S'A'
S'B'
S'A'
S'A'
S'B'
S'A'
tp759
g8
((lp760
g489
atRp761
s(S'A'
S'A'
S'A'
S'A'
S'B'
S'A'
S'A'
tp762
g8
((lp763
g224
atRp764
s(S'A'
S'A'
S'A'
S'A'
S'B'
S'A'
tp765
g8
((lp766
g351
atRp767
s(S'A'
S'B'
S'A'
S'A'
S'B'
S'A'
S'A'
tp768
g8
((lp769
g459
atRp770
s(S'B'
S'A'
S'A'
S'A'
S'A'
tp771
g8
((lp772
g390
atRp773
s(S'A'
S'A'
tp774
g8
((lp775
g466
atRp776
s(S'A'
S'A'
S'B'
S'A'
S'A'
S'A'
S'A'
tp777
g8
((lp778
g376
atRp779
s(S'B'
S'A'
S'A'
S'B'
S'A'
S'A'
S'A'
tp780
g8
((lp781
g140
atRp782
s(S'A'
S'B'
S'A'
S'A'
S'A'
S'A'
tp783
g8
((lp784
g266
atRp785
s(S'B'
S'A'
S'B'
S'A'
S'A'
tp786
g8
((lp787
g369
atRp788
s(S'A'
S'A'
S'A'
S'A'
S'A'
S'B'
S'A'
tp789
g8
((lp790
g312
atRp791
s(S'A'
S'A'
S'B'
S'A'
S'B'
S'A'
S'A'
tp792
g8
((lp793
g252
atRp794
s(S'A'
S'A'
S'A'
S'A'
S'A'
S'A'
tp795
g8
((lp796
g280
atRp797
s(S'B'
S'A'
S'A'
S'A'
S'A'
S'B'
S'A'
tp798
g8
((lp799
g245
atRp800
s(S'A'
S'B'
S'A'
S'A'
S'A'
S'A'
S'A'
tp801
g8
((lp802
g238
atRp803
s(S'B'
S'A'
S'A'
S'A'
S'B'
S'A'
tp804
g8
((lp805
g273
atRp806
s(S'B'
S'A'
S'B'
S'A'
S'B'
S'A'
tp807
g8
((lp808
g448
atRp809
s(S'A'
S'B'
S'A'
S'A'
S'A'
S'B'
S'A'
tp810
g8
((lp811
g420
atRp812
s(S'A'
S'A'
S'B'
S'A'
S'A'
S'B'
S'A'
tp813
g8
((lp814
g383
atRp815
s(S'B'
S'A'
S'B'
S'A'
tp816
g8
((lp817
g167
atRp818
s(S'A'
S'A'
S'B'
S'A'
tp819
g8
((lp820
g131
atRp821
s(S'B'
S'A'
S'A'
S'A'
tp822
g8
((lp823
g287
atRp824
s(S'A'
S'A'
S'A'
S'B'
S'A'
S'A'
S'A'
tp825
g8
((lp826
g211
atRp827
s(S'B'
S'A'
S'B'
S'A'
S'A'
S'A'
S'A'
tp828
g8
((lp829
g259
atRp830
s(S'A'
S'B'
S'A'
S'A'
S'B'
S'A'
tp831
g8
((lp832
g319
atRp833
s(S'A'
S'A'
S'A'
S'A'
tp834
g8
((lp835
g115
atRp836
s(S'A'
S'A'
S'A'
S'B'
S'A'
tp837
g8
((lp838
g160
atRp839
s(S'A'
S'A'
S'B'
S'A'
S'A'
S'A'
tp840
g8
((lp841
g231
atRp842
s(S'B'
S'A'
S'A'
S'A'
S'B'
S'A'
S'A'
tp843
g8
((lp844
g441
atRp845
ssS'_tau'
p846
F64
sS'_number_of_productions'
p847
I0
sb.