ccopy_reg
_reconstructor
p1
(chybrid
Hybrid
p2
c__builtin__
object
p3
NtRp4
(dp5
S'_rhs_to_unary_pcfg_production'
p6
ccollections
defaultdict
p7
(c__builtin__
set
p8
tRp9
VA
g8
((lp10
g1
(cnltk.grammar
Production
p11
g3
NtRp12
(dp13
S'_rhs'
p14
(VA
tp15
sS'_hash'
p16
I-6031013813573080186
sS'_lhs'
p17
g1
(cnltk.grammar
Nonterminal
p18
g3
NtRp19
(dp20
S'_symbol'
p21
VNucleus
p22
sg16
I-2187922955892876620
sbsbatRp23
sVB
g8
((lp24
g1
(g11
g3
NtRp25
(dp26
g14
(VB
tp27
sg16
I-4788177378572342785
sg17
g1
(g18
g3
NtRp28
(dp29
g21
VOnset
p30
sg16
I386175822344591504
sbsbatRp31
sg1
(g18
g3
NtRp32
(dp33
g21
VWord
p34
sg16
I-7487829120334232892
sbg8
((ltRp35
sg1
(g18
g3
NtRp36
(dp37
g21
VSyl
p38
sg16
I-1228887169348443217
sbg8
((lp39
g1
(g11
g3
NtRp40
(dp41
g14
(g36
tp42
sg16
I1457082601528794552
sg17
g1
(g18
g3
NtRp43
(dp44
g21
VSyls
p45
sg16
I-5659307568355774861
sbsbatRp46
sg28
g8
((ltRp47
sg1
(g18
g3
NtRp48
(dp49
g21
VSyls
p50
sg16
I-5659307568355774861
sbg8
((lp51
g1
(g11
g3
NtRp52
(dp53
g14
(g48
tp54
sg16
I3838246743812645699
sg17
g32
sbatRp55
sg1
(g18
g3
NtRp56
(dp57
g21
VNucleus
p58
sg16
I-2187922955892876620
sbg8
((lp59
g1
(g11
g3
NtRp60
(dp61
g14
(g56
tp62
sg16
I7092314276867068909
sg17
g1
(g18
g3
NtRp63
(dp64
g21
VSyl
p65
sg16
I-1228887169348443217
sbsbatRp66
ssS'_lhs_rhs_to_active_adapted_production'
p67
g7
(g8
tRp68
(g32
(S'B'
S'A'
S'A'
S'B'
ttp69
g8
((ltRp70
s(g32
(S'A'
S'B'
S'A'
S'B'
S'A'
S'B'
S'A'
ttp71
g8
((lp72
g1
(cutil
AdaptedProduction
p73
g3
NtRp74
(dp75
g14
(S'A'
S'B'
S'A'
S'B'
S'A'
S'B'
S'A'
tp76
sg16
I-2225830649029521299
sg17
g32
sS'_productions'
p77
(lp78
g52
ag1
(g11
g3
NtRp79
(dp80
g14
(g1
(g18
g3
NtRp81
(dp82
g21
VSyl
p83
sg16
I-1228887169348443217
sbg1
(g18
g3
NtRp84
(dp85
g21
VSyls
p86
sg16
I-5659307568355774861
sbtp87
sg16
I-1069894011082058221
sg17
g1
(g18
g3
NtRp88
(dp89
g21
VSyls
p90
sg16
I-5659307568355774861
sbsbag60
ag12
ag79
ag1
(g11
g3
NtRp91
(dp92
g14
(g1
(g18
g3
NtRp93
(dp94
g21
VOnset
p95
sg16
I386175822344591504
sbg1
(g18
g3
NtRp96
(dp97
g21
VNucleus
p98
sg16
I-2187922955892876620
sbtp99
sg16
I-4580647145546379003
sg17
g1
(g18
g3
NtRp100
(dp101
g21
VSyl
p102
sg16
I-1228887169348443217
sbsbag25
ag12
ag79
ag91
ag25
ag12
ag40
ag91
ag25
ag12
asbatRp103
s(g32
(S'B'
S'A'
S'B'
ttp104
g8
((ltRp105
s(g32
(S'B'
S'A'
S'A'
S'A'
S'B'
S'A'
ttp106
g8
((lp107
g1
(g73
g3
NtRp108
(dp109
g14
(S'B'
S'A'
S'A'
S'A'
S'B'
S'A'
tp110
sg16
I-5320923933598762500
sg17
g32
sg77
(lp111
g52
ag79
ag91
ag25
ag12
ag79
ag60
ag12
ag79
ag60
ag12
ag40
ag91
ag25
ag12
asbatRp112
s(g32
(S'A'
S'A'
S'A'
S'A'
ttp113
g8
((lp114
g1
(g73
g3
NtRp115
(dp116
g14
(S'A'
S'A'
S'A'
S'A'
tp117
sg16
I-1325365498446268084
sg17
g32
sg77
(lp118
g52
ag79
ag60
ag12
ag79
ag60
ag12
ag79
ag60
ag12
ag40
ag60
ag12
asbatRp119
s(g32
(S'A'
S'A'
S'A'
S'A'
S'B'
ttp120
g8
((ltRp121
s(g32
(S'A'
S'A'
S'A'
S'B'
S'A'
S'B'
S'A'
ttp122
g8
((lp123
g1
(g73
g3
NtRp124
(dp125
g14
(S'A'
S'A'
S'A'
S'B'
S'A'
S'B'
S'A'
tp126
sg16
I4172461770188130802
sg17
g32
sg77
(lp127
g52
ag79
ag60
ag12
ag79
ag60
ag12
ag79
ag60
ag12
ag79
ag91
ag25
ag12
ag40
ag91
ag25
ag12
asbatRp128
s(g32
(S'A'
S'A'
S'B'
S'A'
ttp129
g8
((lp130
g1
(g73
g3
NtRp131
(dp132
g14
(S'A'
S'A'
S'B'
S'A'
tp133
sg16
I-2316844505522669525
sg17
g32
sg77
(lp134
g52
ag79
ag60
ag12
ag79
ag60
ag12
ag40
ag91
ag25
ag12
asbatRp135
s(g32
(S'B'
S'A'
S'A'
S'A'
S'A'
S'B'
ttp136
g8
((ltRp137
s(g32
(S'B'
S'A'
S'A'
S'B'
S'A'
S'A'
S'A'
ttp138
g8
((lp139
g1
(g73
g3
NtRp140
(dp141
g14
(S'B'
S'A'
S'A'
S'B'
S'A'
S'A'
S'A'
tp142
sg16
I2613370209769776512
sg17
g32
sg77
(lp143
g52
ag79
ag91
ag25
ag12
ag79
ag60
ag12
ag79
ag91
ag25
ag12
ag79
ag60
ag12
ag40
ag60
ag12
asbatRp144
s(g32
(S'A'
S'A'
S'A'
S'A'
S'A'
S'A'
ttp145
g8
((lp146
g1
(g73
g3
NtRp147
(dp148
g14
(S'A'
S'A'
S'A'
S'A'
S'A'
S'A'
tp149
sg16
I-7424224077654823140
sg17
g32
sg77
(lp150
g52
ag79
ag60
ag12
ag79
ag60
ag12
ag79
ag60
ag12
ag79
ag60
ag12
ag79
ag60
ag12
ag40
ag60
ag12
asbatRp151
s(g32
(S'A'
ttp152
g8
((ltRp153
s(g32
(S'A'
S'A'
S'A'
S'B'
ttp154
g8
((ltRp155
s(g32
(S'A'
S'A'
S'A'
S'B'
S'A'
S'A'
ttp156
g8
((lp157
g1
(g73
g3
NtRp158
(dp159
g14
(S'A'
S'A'
S'A'
S'B'
S'A'
S'A'
tp160
sg16
I665966230241940149
sg17
g32
sg77
(lp161
g52
ag79
ag60
ag12
ag79
ag60
ag12
ag79
ag60
ag12
ag79
ag91
ag25
ag12
ag40
ag60
ag12
asbatRp162
s(g32
(S'A'
S'A'
S'B'
S'A'
S'A'
ttp163
g8
((lp164
g1
(g73
g3
NtRp165
(dp166
g14
(S'A'
S'A'
S'B'
S'A'
S'A'
tp167
sg16
I-4797331791566421285
sg17
g32
sg77
(lp168
g52
ag79
ag60
ag12
ag79
ag60
ag12
ag79
ag91
ag25
ag12
ag40
ag60
ag12
asbatRp169
s(g32
(S'B'
S'A'
S'B'
S'A'
ttp170
g8
((lp171
g1
(g73
g3
NtRp172
(dp173
g14
(S'B'
S'A'
S'B'
S'A'
tp174
sg16
I8240817732820029550
sg17
g32
sg77
(lp175
g52
ag79
ag91
ag25
ag12
ag40
ag91
ag25
ag12
asbatRp176
s(g32
(S'A'
S'B'
S'A'
S'B'
S'A'
S'A'
ttp177
g8
((lp178
g1
(g73
g3
NtRp179
(dp180
g14
(S'A'
S'B'
S'A'
S'B'
S'A'
S'A'
tp181
sg16
I7456251271614574996
sg17
g32
sg77
(lp182
g52
ag79
ag60
ag12
ag79
ag91
ag25
ag12
ag79
ag91
ag25
ag12
ag40
ag60
ag12
asbatRp183
s(g32
(S'A'
S'A'
S'A'
S'B'
S'A'
ttp184
g8
((lp185
g1
(g73
g3
NtRp186
(dp187
g14
(S'A'
S'A'
S'A'
S'B'
S'A'
tp188
sg16
I-1076558265529941029
sg17
g32
sg77
(lp189
g52
ag79
ag60
ag12
ag79
ag60
ag12
ag79
ag60
ag12
ag40
ag91
ag25
ag12
asbatRp190
s(g32
(S'B'
S'A'
S'A'
S'B'
S'A'
S'B'
ttp191
g8
((ltRp192
s(g32
(S'B'
S'A'
S'A'
ttp193
g8
((lp194
g1
(g73
g3
NtRp195
(dp196
g14
(S'B'
S'A'
S'A'
tp197
sg16
I-9186871463055856539
sg17
g32
sg77
(lp198
g52
ag79
ag91
ag25
ag12
ag40
ag60
ag12
asbatRp199
s(g32
(S'A'
S'A'
S'A'
S'A'
S'A'
ttp200
g8
((lp201
g1
(g73
g3
NtRp202
(dp203
g14
(S'A'
S'A'
S'A'
S'A'
S'A'
tp204
sg16
I-4205258479537446660
sg17
g32
sg77
(lp205
g52
ag79
ag60
ag12
ag79
ag60
ag12
ag79
ag60
ag12
ag79
ag60
ag12
ag40
ag60
ag12
asbatRp206
s(g32
(S'A'
S'B'
S'A'
ttp207
g8
((lp208
g1
(g73
g3
NtRp209
(dp210
g14
(S'A'
S'B'
S'A'
tp211
sg16
I-7713826496372588769
sg17
g32
sg77
(lp212
g52
ag79
ag60
ag12
ag40
ag91
ag25
ag12
asbatRp213
s(g32
(S'A'
S'B'
S'A'
S'B'
S'A'
ttp214
g8
((lp215
g1
(g73
g3
NtRp216
(dp217
g14
(S'A'
S'B'
S'A'
S'B'
S'A'
tp218
sg16
I-7608205695528014690
sg17
g32
sg77
(lp219
g52
ag79
ag60
ag12
ag79
ag91
ag25
ag12
ag40
ag91
ag25
ag12
asbatRp220
s(g32
(S'A'
S'A'
S'A'
S'B'
S'A'
S'A'
S'A'
ttp221
g8
((lp222
g1
(g73
g3
NtRp223
(dp224
g14
(S'A'
S'A'
S'A'
S'B'
S'A'
S'A'
S'A'
tp225
sg16
I5022195941642987825
sg17
g32
sg77
(lp226
g52
ag79
ag60
ag12
ag79
ag60
ag12
ag79
ag60
ag12
ag79
ag91
ag25
ag12
ag79
ag60
ag12
ag40
ag60
ag12
asbatRp227
s(g32
(S'A'
S'A'
S'B'
S'A'
S'A'
S'A'
ttp228
g8
((lp229
g1
(g73
g3
NtRp230
(dp231
g14
(S'A'
S'A'
S'B'
S'A'
S'A'
S'A'
tp232
sg16
I-3326099251008504255
sg17
g32
sg77
(lp233
g52
ag79
ag60
ag12
ag79
ag60
ag12
ag79
ag91
ag25
ag12
ag79
ag60
ag12
ag40
ag60
ag12
asbatRp234
s(g32
(S'A'
S'B'
S'A'
S'A'
S'B'
ttp235
g8
((ltRp236
s(g32
(S'A'
S'B'
ttp237
g8
((ltRp238
s(g32
(S'B'
S'A'
S'A'
S'B'
S'A'
ttp239
g8
((lp240
g1
(g73
g3
NtRp241
(dp242
g14
(S'B'
S'A'
S'A'
S'B'
S'A'
tp243
sg16
I-1018841582885434284
sg17
g32
sg77
(lp244
g52
ag79
ag91
ag25
ag12
ag79
ag60
ag12
ag40
ag91
ag25
ag12
asbatRp245
s(g32
(S'A'
S'B'
S'A'
S'A'
S'A'
S'A'
S'A'
ttp246
g8
((lp247
g1
(g73
g3
NtRp248
(dp249
g14
(S'A'
S'B'
S'A'
S'A'
S'A'
S'A'
S'A'
tp250
sg16
I7656497927841721199
sg17
g32
sg77
(lp251
g52
ag79
ag60
ag12
ag79
ag91
ag25
ag12
ag79
ag60
ag12
ag79
ag60
ag12
ag79
ag60
ag12
ag40
ag60
ag12
asbatRp252
s(g32
(S'A'
S'B'
S'A'
S'A'
S'B'
S'A'
S'A'
ttp253
g8
((lp254
g1
(g73
g3
NtRp255
(dp256
g14
(S'A'
S'B'
S'A'
S'A'
S'B'
S'A'
S'A'
tp257
sg16
I-5417154281763030026
sg17
g32
sg77
(lp258
g52
ag79
ag60
ag12
ag79
ag91
ag25
ag12
ag79
ag60
ag12
ag79
ag91
ag25
ag12
ag40
ag60
ag12
asbatRp259
s(g32
(S'A'
S'A'
S'B'
S'A'
S'B'
S'A'
S'A'
ttp260
g8
((lp261
g1
(g73
g3
NtRp262
(dp263
g14
(S'A'
S'A'
S'B'
S'A'
S'B'
S'A'
S'A'
tp264
sg16
I-1364228983069653892
sg17
g32
sg77
(lp265
g52
ag79
ag60
ag12
ag79
ag60
ag12
ag79
ag91
ag25
ag12
ag79
ag91
ag25
ag12
ag40
ag60
ag12
asbatRp266
s(g32
(S'B'
S'A'
S'B'
S'A'
S'A'
S'A'
S'A'
ttp267
g8
((lp268
g1
(g73
g3
NtRp269
(dp270
g14
(S'B'
S'A'
S'B'
S'A'
S'A'
S'A'
S'A'
tp271
sg16
I-9169649360894987816
sg17
g32
sg77
(lp272
g52
ag79
ag91
ag25
ag12
ag79
ag91
ag25
ag12
ag79
ag60
ag12
ag79
ag60
ag12
ag40
ag60
ag12
asbatRp273
s(g32
(S'A'
S'A'
S'A'
S'A'
S'B'
S'A'
S'A'
ttp274
g8
((lp275
g1
(g73
g3
NtRp276
(dp277
g14
(S'A'
S'A'
S'A'
S'A'
S'B'
S'A'
S'A'
tp278
sg16
I4459025393897511113
sg17
g32
sg77
(lp279
g52
ag79
ag60
ag12
ag79
ag60
ag12
ag79
ag60
ag12
ag79
ag60
ag12
ag79
ag91
ag25
ag12
ag40
ag60
ag12
asbatRp280
s(g32
(S'A'
S'B'
S'A'
S'A'
S'A'
S'A'
ttp281
g8
((lp282
g1
(g73
g3
NtRp283
(dp284
g14
(S'A'
S'B'
S'A'
S'A'
S'A'
S'A'
tp285
sg16
I-2536487101653917139
sg17
g32
sg77
(lp286
g52
ag79
ag60
ag12
ag79
ag91
ag25
ag12
ag79
ag60
ag12
ag79
ag60
ag12
ag40
ag60
ag12
asbatRp287
s(g32
(S'B'
S'A'
S'A'
S'A'
ttp288
g8
((lp289
g1
(g73
g3
NtRp290
(dp291
g14
(S'B'
S'A'
S'A'
S'A'
tp292
sg16
I8192998892612929273
sg17
g32
sg77
(lp293
g52
ag79
ag91
ag25
ag12
ag79
ag60
ag12
ag40
ag60
ag12
asbatRp294
s(g32
(S'A'
S'A'
S'B'
S'A'
S'A'
S'B'
ttp295
g8
((ltRp296
s(g32
(S'B'
S'A'
ttp297
g8
((lp298
g1
(g73
g3
NtRp299
(dp300
g14
(S'B'
S'A'
tp301
sg16
I-188534470611740513
sg17
g32
sg77
(lp302
g52
ag40
ag91
ag25
ag12
asbatRp303
s(g32
(S'B'
S'A'
S'B'
S'A'
S'B'
S'A'
S'A'
ttp304
g8
((lp305
g1
(g73
g3
NtRp306
(dp307
g14
(S'B'
S'A'
S'B'
S'A'
S'B'
S'A'
S'A'
tp308
sg16
I3479348714036682181
sg17
g32
sg77
(lp309
g52
ag79
ag91
ag25
ag12
ag79
ag91
ag25
ag12
ag79
ag91
ag25
ag12
ag40
ag60
ag12
asbatRp310
s(g32
(S'A'
S'A'
S'B'
S'A'
S'B'
ttp311
g8
((ltRp312
s(g32
(S'A'
S'A'
S'A'
S'A'
S'A'
S'B'
S'A'
ttp313
g8
((lp314
g1
(g73
g3
NtRp315
(dp316
g14
(S'A'
S'A'
S'A'
S'A'
S'A'
S'B'
S'A'
tp317
sg16
I-5185347396350984849
sg17
g32
sg77
(lp318
g52
ag79
ag60
ag12
ag79
ag60
ag12
ag79
ag60
ag12
ag79
ag60
ag12
ag79
ag60
ag12
ag40
ag91
ag25
ag12
asbatRp319
s(g32
(S'A'
S'B'
S'A'
S'A'
S'B'
S'A'
ttp320
g8
((lp321
g1
(g73
g3
NtRp322
(dp323
g14
(S'A'
S'B'
S'A'
S'A'
S'B'
S'A'
tp324
sg16
I7428955275051761278
sg17
g32
sg77
(lp325
g52
ag79
ag60
ag12
ag79
ag91
ag25
ag12
ag79
ag60
ag12
ag40
ag91
ag25
ag12
asbatRp326
s(g32
(S'A'
S'A'
S'A'
S'A'
S'A'
S'B'
ttp327
g8
((ltRp328
s(g32
(S'B'
S'A'
S'A'
S'B'
S'A'
S'A'
ttp329
g8
((lp330
g1
(g73
g3
NtRp331
(dp332
g14
(S'B'
S'A'
S'A'
S'B'
S'A'
S'A'
tp333
sg16
I-3998695102976582966
sg17
g32
sg77
(lp334
g52
ag79
ag91
ag25
ag12
ag79
ag60
ag12
ag79
ag91
ag25
ag12
ag40
ag60
ag12
asbatRp335
s(g32
(S'A'
S'A'
S'A'
S'B'
S'A'
S'B'
ttp336
g8
((ltRp337
s(g32
(S'B'
S'A'
S'A'
S'B'
S'A'
S'B'
S'A'
ttp338
g8
((lp339
g1
(g73
g3
NtRp340
(dp341
g14
(S'B'
S'A'
S'A'
S'B'
S'A'
S'B'
S'A'
tp342
sg16
I5836723991697047043
sg17
g32
sg77
(lp343
g52
ag79
ag91
ag25
ag12
ag79
ag60
ag12
ag79
ag91
ag25
ag12
ag40
ag91
ag25
ag12
asbatRp344
s(g32
(S'A'
S'B'
S'A'
S'A'
S'A'
ttp345
g8
((lp346
g1
(g73
g3
NtRp347
(dp348
g14
(S'A'
S'B'
S'A'
S'A'
S'A'
tp349
sg16
I6000677576711744169
sg17
g32
sg77
(lp350
g52
ag79
ag60
ag12
ag79
ag91
ag25
ag12
ag79
ag60
ag12
ag40
ag60
ag12
asbatRp351
s(g32
(S'A'
S'A'
S'A'
S'A'
S'B'
S'A'
ttp352
g8
((lp353
g1
(g73
g3
NtRp354
(dp355
g14
(S'A'
S'A'
S'A'
S'A'
S'B'
S'A'
tp356
sg16
I-5198676683665610673
sg17
g32
sg77
(lp357
g52
ag79
ag60
ag12
ag79
ag60
ag12
ag79
ag60
ag12
ag79
ag60
ag12
ag40
ag91
ag25
ag12
asbatRp358
s(g32
(S'A'
S'B'
S'A'
S'A'
S'A'
S'B'
ttp359
g8
((ltRp360
s(g32
(S'A'
S'B'
S'A'
S'B'
S'A'
S'A'
S'A'
ttp361
g8
((lp362
g1
(g73
g3
NtRp363
(dp364
g14
(S'A'
S'B'
S'A'
S'B'
S'A'
S'A'
S'A'
tp365
sg16
I-744619435474226258
sg17
g32
sg77
(lp366
g52
ag79
ag60
ag12
ag79
ag91
ag25
ag12
ag79
ag91
ag25
ag12
ag79
ag60
ag12
ag40
ag60
ag12
asbatRp367
s(g32
(S'A'
S'A'
S'B'
ttp368
g8
((ltRp369
s(g32
(S'B'
S'A'
S'B'
S'A'
S'A'
ttp370
g8
((lp371
g1
(g73
g3
NtRp372
(dp373
g14
(S'B'
S'A'
S'B'
S'A'
S'A'
tp374
sg16
I5196590161345141076
sg17
g32
sg77
(lp375
g52
ag79
ag91
ag25
ag12
ag79
ag91
ag25
ag12
ag40
ag60
ag12
asbatRp376
s(g32
(S'A'
S'A'
S'B'
S'A'
S'A'
S'B'
S'A'
ttp377
g8
((lp378
g1
(g73
g3
NtRp379
(dp380
g14
(S'A'
S'A'
S'B'
S'A'
S'A'
S'B'
S'A'
tp381
sg16
I-7707489067786191238
sg17
g32
sg77
(lp382
g52
ag79
ag60
ag12
ag79
ag60
ag12
ag79
ag91
ag25
ag12
ag79
ag60
ag12
ag40
ag91
ag25
ag12
asbatRp383
s(g32
(S'B'
S'A'
S'A'
S'A'
S'A'
ttp384
g8
((lp385
g1
(g73
g3
NtRp386
(dp387
g14
(S'B'
S'A'
S'A'
S'A'
S'A'
tp388
sg16
I-8966159728651704781
sg17
g32
sg77
(lp389
g52
ag79
ag91
ag25
ag12
ag79
ag60
ag12
ag79
ag60
ag12
ag40
ag60
ag12
asbatRp390
s(g32
(S'A'
S'A'
S'B'
S'A'
S'A'
S'A'
S'A'
ttp391
g8
((lp392
g1
(g73
g3
NtRp393
(dp394
g14
(S'A'
S'A'
S'B'
S'A'
S'A'
S'A'
S'A'
tp395
sg16
I-8885462502842246567
sg17
g32
sg77
(lp396
g52
ag79
ag60
ag12
ag79
ag60
ag12
ag79
ag91
ag25
ag12
ag79
ag60
ag12
ag79
ag60
ag12
ag40
ag60
ag12
asbatRp397
s(g32
(S'A'
S'A'
S'A'
ttp398
g8
((lp399
g1
(g73
g3
NtRp400
(dp401
g14
(S'A'
S'A'
S'A'
tp402
sg16
I-2758676094481755796
sg17
g32
sg77
(lp403
g52
ag79
ag60
ag12
ag79
ag60
ag12
ag40
ag60
ag12
asbatRp404
s(g32
(S'B'
S'A'
S'B'
S'A'
S'A'
S'B'
ttp405
g8
((ltRp406
s(g32
(S'A'
S'A'
S'B'
S'A'
S'B'
S'A'
ttp407
g8
((lp408
g1
(g73
g3
NtRp409
(dp410
g14
(S'A'
S'A'
S'B'
S'A'
S'B'
S'A'
tp411
sg16
I-4883885191927071982
sg17
g32
sg77
(lp412
g52
ag79
ag60
ag12
ag79
ag60
ag12
ag79
ag91
ag25
ag12
ag40
ag91
ag25
ag12
asbatRp413
s(g32
(S'A'
S'B'
S'A'
S'A'
S'A'
S'B'
S'A'
ttp414
g8
((lp415
g1
(g73
g3
NtRp416
(dp417
g14
(S'A'
S'B'
S'A'
S'A'
S'A'
S'B'
S'A'
tp418
sg16
I2366317421772867564
sg17
g32
sg77
(lp419
g52
ag79
ag60
ag12
ag79
ag91
ag25
ag12
ag79
ag60
ag12
ag79
ag60
ag12
ag40
ag91
ag25
ag12
asbatRp420
s(g32
(S'A'
S'B'
S'A'
S'A'
ttp421
g8
((lp422
g1
(g73
g3
NtRp423
(dp424
g14
(S'A'
S'B'
S'A'
S'A'
tp425
sg16
I-4753585554823192757
sg17
g32
sg77
(lp426
g52
ag79
ag60
ag12
ag79
ag91
ag25
ag12
ag40
ag60
ag12
asbatRp427
s(g32
(S'B'
S'A'
S'A'
S'A'
S'B'
S'A'
S'A'
ttp428
g8
((lp429
g1
(g73
g3
NtRp430
(dp431
g14
(S'B'
S'A'
S'A'
S'A'
S'B'
S'A'
S'A'
tp432
sg16
I2706060825806157672
sg17
g32
sg77
(lp433
g52
ag79
ag91
ag25
ag12
ag79
ag60
ag12
ag79
ag60
ag12
ag79
ag91
ag25
ag12
ag40
ag60
ag12
asbatRp434
s(g32
(S'A'
S'A'
S'A'
S'A'
S'A'
S'A'
S'A'
ttp435
g8
((lp436
g1
(g73
g3
NtRp437
(dp438
g14
(S'A'
S'A'
S'A'
S'A'
S'A'
S'A'
S'A'
tp439
sg16
I-6433852087374260756
sg17
g32
sg77
(lp440
g52
ag79
ag60
ag12
ag79
ag60
ag12
ag79
ag60
ag12
ag79
ag60
ag12
ag79
ag60
ag12
ag79
ag60
ag12
ag40
ag60
ag12
asbatRp441
s(g32
(S'B'
S'A'
S'B'
S'A'
S'B'
S'A'
ttp442
g8
((lp443
g1
(g73
g3
NtRp444
(dp445
g14
(S'B'
S'A'
S'B'
S'A'
S'B'
S'A'
tp446
sg16
I6010726330704298429
sg17
g32
sg77
(lp447
g52
ag79
ag91
ag25
ag12
ag79
ag91
ag25
ag12
ag40
ag91
ag25
ag12
asbatRp448
s(g32
(S'B'
S'A'
S'A'
S'A'
S'B'
ttp449
g8
((ltRp450
s(g32
(S'B'
ttp451
g8
((ltRp452
s(g32
(S'B'
S'A'
S'A'
S'A'
S'A'
S'B'
S'A'
ttp453
g8
((lp454
g1
(g73
g3
NtRp455
(dp456
g14
(S'B'
S'A'
S'A'
S'A'
S'A'
S'B'
S'A'
tp457
sg16
I4769111891365400310
sg17
g32
sg77
(lp458
g52
ag79
ag91
ag25
ag12
ag79
ag60
ag12
ag79
ag60
ag12
ag79
ag60
ag12
ag40
ag91
ag25
ag12
asbatRp459
s(g32
(S'A'
S'A'
ttp460
g8
((lp461
g1
(g73
g3
NtRp462
(dp463
g14
(S'A'
S'A'
tp464
sg16
I-6478850639629933412
sg17
g32
sg77
(lp465
g52
ag79
ag60
ag12
ag40
ag60
ag12
asbatRp466
s(g32
(S'B'
S'A'
S'A'
S'A'
S'A'
S'A'
ttp467
g8
((lp468
g1
(g73
g3
NtRp469
(dp470
g14
(S'B'
S'A'
S'A'
S'A'
S'A'
S'A'
tp471
sg16
I-4041359322255862097
sg17
g32
sg77
(lp472
g52
ag79
ag91
ag25
ag12
ag79
ag60
ag12
ag79
ag60
ag12
ag79
ag60
ag12
ag40
ag60
ag12
asbatRp473
s(g32
(S'B'
S'A'
S'A'
S'A'
S'A'
S'A'
S'A'
ttp474
g8
((lp475
g1
(g73
g3
NtRp476
(dp477
g14
(S'B'
S'A'
S'A'
S'A'
S'A'
S'A'
S'A'
tp478
sg16
I1376068153471606485
sg17
g32
sg77
(lp479
g52
ag79
ag91
ag25
ag12
ag79
ag60
ag12
ag79
ag60
ag12
ag79
ag60
ag12
ag79
ag60
ag12
ag40
ag60
ag12
asbatRp480
s(g32
(S'A'
S'B'
S'A'
S'B'
ttp481
g8
((ltRp482
s(g32
(S'B'
S'A'
S'B'
S'A'
S'A'
S'B'
S'A'
ttp483
g8
((lp484
g1
(g73
g3
NtRp485
(dp486
g14
(S'B'
S'A'
S'B'
S'A'
S'A'
S'B'
S'A'
tp487
sg16
I287995444404125947
sg17
g32
sg77
(lp488
g52
ag79
ag91
ag25
ag12
ag79
ag91
ag25
ag12
ag79
ag60
ag12
ag40
ag91
ag25
ag12
asbatRp489
s(g32
(S'B'
S'A'
S'B'
S'A'
S'A'
S'A'
ttp490
g8
((lp491
g1
(g73
g3
NtRp492
(dp493
g14
(S'B'
S'A'
S'B'
S'A'
S'A'
S'A'
tp494
sg16
I-480415228659166578
sg17
g32
sg77
(lp495
g52
ag79
ag91
ag25
ag12
ag79
ag91
ag25
ag12
ag79
ag60
ag12
ag40
ag60
ag12
asbatRp496
s(g32
(S'B'
S'A'
S'B'
S'A'
S'B'
ttp497
g8
((ltRp498
s(g32
(S'A'
S'B'
S'A'
S'B'
S'A'
S'B'
ttp499
g8
((ltRp500
ssS'_batch_size'
p501
I10000
sS'_adapted_non_terminals'
p502
g8
((lp503
g1
(g18
g3
NtRp504
(dp505
g21
S'Word'
p506
sg16
I-7487829120334232892
sbatRp507
sS'_ordered_adaptor_down_top'
p508
(lp509
g32
asS'_number_of_productions_prime'
p510
I0
sS'_pcfg_sufficient_statistics_of_lhs'
p511
(dp512
g28
cnumpy.core.multiarray
_reconstruct
p513
(cnumpy
ndarray
p514
(I0
tS'b'
tRp515
(I1
(I1
I1
tcnumpy
dtype
p516
(S'f8'
I0
I1
tRp517
(I3
S'<'
NNNI-1
I-1
I0
tbI00
S'\x00\x00\x00\x00\x00\x00\x00\x00'
tbsg32
g513
(g514
(I0
tS'b'
tRp518
(I1
(I1
I1
tg517
I00
S'\x00\x00\x00\x00\x00\x00\x00\x00'
tbsg43
g513
(g514
(I0
tS'b'
tRp519
(I1
(I1
I2
tg517
I00
S'\x00\x00\x00\x00\x00\x00\x00\x00\x00\x00\x00\x00\x00\x00\x00\x00'
tbsg19
g513
(g514
(I0
tS'b'
tRp520
(I1
(I1
I1
tg517
I00
S'\x00\x00\x00\x00\x00\x00\x00\x00'
tbsg63
g513
(g514
(I0
tS'b'
tRp521
(I1
(I1
I2
tg517
I00
S'\x00\x00\x00\x00\x00\x00\x00\x00\x00\x00\x00\x00\x00\x00\x00\x00'
tbssS'_incremental_build_up'
p522
I00
sS'_active_adapted_production_to_nu_index_of_lhs'
p523
(dp524
g504
(dp525
g140
I47
sg340
I35
sg437
I38
sg492
I36
sg409
I32
sg179
I5
sg315
I48
sg462
I1
sg216
I12
sg299
I11
sg186
I41
sg347
I3
sg131
I24
sg283
I33
sg363
I10
sg469
I45
sg223
I23
sg386
I6
sg158
I15
sg255
I49
sg209
I4
sg444
I16
sg241
I28
sg230
I46
sg306
I26
sg147
I40
sg276
I37
sg331
I0
sg423
I14
sg115
I31
sg354
I34
sg372
I20
sg476
I18
sg269
I50
sg393
I8
sg165
I29
sg108
I43
sg416
I42
sg195
I9
sg430
I7
sg202
I27
sg400
I2
sg74
I21
sg172
I13
sg248
I30
sg124
I39
sg455
I44
sg290
I19
sg379
I51
sg485
I25
sg262
I22
sg322
I17
sssS'_level_to_non_terminal'
p526
g7
(g8
tRp527
I0
g8
((lp528
g32
atRp529
sI1
g8
((lp530
g48
atRp531
sI2
g8
((lp532
g36
atRp533
sI3
g8
((lp534
g93
ag56
atRp535
ssS'_truncation_level'
p536
(dp537
g504
I1500
ssS'_alpha_theta'
p538
(dp539
g28
g513
(g514
(I0
tS'b'
tRp540
(I1
(I1
I1
tg517
I00
S'\x00\x00\x00\x00\x00\x00\xf0?'
tbsg32
g513
(g514
(I0
tS'b'
tRp541
(I1
(I1
I1
tg517
I00
S'\x00\x00\x00\x00\x00\x00\xf0?'
tbsg43
g513
(g514
(I0
tS'b'
tRp542
(I1
(I1
I2
tg517
I00
S'\x00\x00\x00\x00\x00\x00\xe0?\x00\x00\x00\x00\x00\x00\xe0?'
tbsg19
g513
(g514
(I0
tS'b'
tRp543
(I1
(I1
I1
tg517
I00
S'\x00\x00\x00\x00\x00\x00\xf0?'
tbsg63
g513
(g514
(I0
tS'b'
tRp544
(I1
(I1
I2
tg517
I00
S'\x00\x00\x00\x00\x00\x00\xe0?\x00\x00\x00\x00\x00\x00\xe0?'
tbssS'_table_relabel_interval'
p545
I500
sS'_lhs_rhs_to_pcfg_production'
p546
g7
(tRp547
(g32
g54
tp548
g52
s(g100
g99
tp549
g91
s(g19
g15
tp550
g12
s(g63
g62
tp551
g60
s(g88
g87
tp552
g79
s(g43
g42
tp553
g40
s(g28
g27
tp554
g25
ssS'_pcfg_production_usage_counts_of_lhs'
p555
(dp556
g28
g513
(g514
(I0
tS'b'
tRp557
(I1
(I1
I1
tg516
(S'i8'
I0
I1
tRp558
(I3
S'<'
NNNI-1
I-1
I0
tbI00
S'L\x00\x00\x00\x00\x00\x00\x00'
tbsg32
g513
(g514
(I0
tS'b'
tRp559
(I1
(I1
I1
tg558
I00
S'4\x00\x00\x00\x00\x00\x00\x00'
tbsg43
g513
(g514
(I0
tS'b'
tRp560
(I1
(I1
I2
tg558
I00
S'4\x00\x00\x00\x00\x00\x00\x00\xaa\x00\x00\x00\x00\x00\x00\x00'
tbsg19
g513
(g514
(I0
tS'b'
tRp561
(I1
(I1
I1
tg558
I00
S'\xde\x00\x00\x00\x00\x00\x00\x00'
tbsg63
g513
(g514
(I0
tS'b'
tRp562
(I1
(I1
I2
tg558
I00
S'\x92\x00\x00\x00\x00\x00\x00\x00L\x00\x00\x00\x00\x00\x00\x00'
tbssS'_gamma'
p563
(dp564
g28
g513
(g514
(I0
tS'b'
tRp565
(I1
(I1
I1
tg517
I00
S'\x00\x00\x00\x00\x00@S@'
tbsg32
g513
(g514
(I0
tS'b'
tRp566
(I1
(I1
I1
tg517
I00
S'\x00\x00\x00\x00\x00\x80J@'
tbsg43
g513
(g514
(I0
tS'b'
tRp567
(I1
(I1
I2
tg517
I00
S'\x00\x00\x00\x00\x00@J@\x00\x00\x00\x00\x00Pe@'
tbsg19
g513
(g514
(I0
tS'b'
tRp568
(I1
(I1
I1
tg517
I00
S'\x00\x00\x00\x00\x00\xe0k@'
tbsg63
g513
(g514
(I0
tS'b'
tRp569
(I1
(I1
I2
tg517
I00
S'\x00\x00\x00\x00\x00Pb@\x00\x00\x00\x00\x00 S@'
tbssS'_reorder_interval'
p570
I10
sS'_number_of_samples'
p571
I10
sS'_lhs_to_pcfg_production'
p572
g7
(g8
tRp573
g28
g8
((lp574
g25
atRp575
sg19
g8
((lp576
g12
atRp577
sg43
g8
((lp578
g40
ag79
atRp579
sg32
g8
((lp580
g52
atRp581
sg63
g8
((lp582
g60
ag91
atRp583
ssS'_alpha_pi'
p584
(dp585
g504
F100
ssS'_active_adapted_production_sufficient_statistics_of_lhs'
p586
(dp587
g504
g513
(g514
(I0
tS'b'
tRp588
(I1
(I1
I52
tg517
I00
S'\x00\x00\x00\x00\x00\x00\x00\x00\x00\x00\x00\x00\x00\x00\x00\x00\x00\x00\x00\x00\x00\x00\x00\x00\x00\x00\x00\x00\x00\x00\x00\x00\x00\x00\x00\x00\x00\x00\x00\x00\x00\x00\x00\x00\x00\x00\x00\x00\x00\x00\x00\x00\x00\x00\x00\x00\x00\x00\x00\x00\x00\x00\x00\x00\x00\x00\x00\x00\x00\x00\x00\x00\x00\x00\x00\x00\x00\x00\x00\x00\x00\x00\x00\x00\x00\x00\x00\x00\x00\x00\x00\x00\x00\x00\x00\x00\x00\x00\x00\x00\x00\x00\x00\x00\x00\x00\x00\x00\x00\x00\x00\x00\x00\x00\x00\x00\x00\x00\x00\x00\x00\x00\x00\x00\x00\x00\x00\x00\x00\x00\x00\x00\x00\x00\x00\x00\x00\x00\x00\x00\x00\x00\x00\x00\x00\x00\x00\x00\x00\x00\x00\x00\x00\x00\x00\x00\x00\x00\x00\x00\x00\x00\x00\x00\x00\x00\x00\x00\x00\x00\x00\x00\x00\x00\x00\x00\x00\x00\x00\x00\x00\x00\x00\x00\x00\x00\x00\x00\x00\x00\x00\x00\x00\x00\x00\x00\x00\x00\x00\x00\x00\x00\x00\x00\x00\x00\x00\x00\x00\x00\x00\x00\x00\x00\x00\x00\x00\x00\x00\x00\x00\x00\x00\x00\x00\x00\x00\x00\x00\x00\x00\x00\x00\x00\x00\x00\x00\x00\x00\x00\x00\x00\x00\x00\x00\x00\x00\x00\x00\x00\x00\x00\x00\x00\x00\x00\x00\x00\x00\x00\x00\x00\x00\x00\x00\x00\x00\x00\x00\x00\x00\x00\x00\x00\x00\x00\x00\x00\x00\x00\x00\x00\x00\x00\x00\x00\x00\x00\x00\x00\x00\x00\x00\x00\x00\x00\x00\x00\x00\x00\x00\x00\x00\x00\x00\x00\x00\x00\x00\x00\x00\x00\x00\x00\x00\x00\x00\x00\x00\x00\x00\x00\x00\x00\x00\x00\x00\x00\x00\x00\x00\x00\x00\x00\x00\x00\x00\x00\x00\x00\x00\x00\x00\x00\x00\x00\x00\x00\x00\x00\x00\x00\x00\x00\x00\x00\x00\x00\x00\x00\x00\x00\x00\x00\x00\x00\x00\x00\x00\x00\x00\x00\x00\x00\x00\x00\x00\x00\x00\x00\x00\x00\x00\x00\x00\x00\x00\x00\x00\x00\x00\x00\x00\x00\x00\x00\x00\x00\x00\x00\x00\x00\x00\x00\x00\x00\x00\x00\x00\x00\x00\x00\x00\x00\x00\x00'
tbssS'_kappa'
p589
F0.75
sS'_number_of_strings'
p590
I10000
sS'_initial_table_relable'
p591
I00
sS'_ordered_adaptor_top_down'
p592
(lp593
g32
asS'_nu_index_to_active_adapted_production_of_lhs'
p594
(dp595
g504
(dp596
I0
g331
sI1
g462
sI2
g400
sI3
g347
sI4
g209
sI5
g179
sI6
g386
sI7
g430
sI8
g393
sI9
g195
sI10
g363
sI11
g299
sI12
g216
sI13
g172
sI14
g423
sI15
g158
sI16
g444
sI17
g322
sI18
g476
sI19
g290
sI20
g372
sI21
g74
sI22
g262
sI23
g223
sI24
g131
sI25
g485
sI26
g306
sI27
g202
sI28
g241
sI29
g165
sI30
g248
sI31
g115
sI32
g409
sI33
g283
sI34
g354
sI35
g340
sI36
g492
sI37
g276
sI38
g437
sI39
g124
sI40
g147
sI41
g186
sI42
g416
sI43
g108
sI44
g455
sI45
g469
sI46
g230
sI47
g140
sI48
g315
sI49
g255
sI50
g269
sI51
g379
sssS'_gamma_index_to_pcfg_production_of_lhs'
p597
g7
(g7
tRp598
g28
g7
(tRp599
I0
g25
ssg19
g7
(tRp600
I0
g12
ssg43
g7
(tRp601
I0
g40
sI1
g79
ssg32
g7
(tRp602
I0
g52
ssg63
g7
(tRp603
I0
g60
sI1
g91
sssS'_active_adapted_production_usage_counts_of_lhs'
p604
(dp605
g504
g513
(g514
(I0
tS'b'
tRp606
(I1
(I1
I52
tg517
I00
S'\x00\x00\x00\x00\x00\x00\x00\x00\x00\x00\x00\x00\x00\x00\x00\x00\x00\x00\x00\x00\x00\x00\x00\x00\x00\x00\x00\x00\x00\x00\x00\x00\x00\x00\x00\x00\x00\x00\x00\x00\x00\x00\x00\x00\x00\x00\x00\x00\x00\x00\x00\x00\x00\x00\x00\x00\x00\x00\x00\x00\x00\x00\x00\x00\x00\x00\x00\x00\x00\x00\x00\x00\x00\x00\x00\x00\x00\x00\x00\x00\x00\x00\x00\x00\x00\x00\x00\x00\x00\x00\x00\x00\x00\x00\x00\x00\x00\x00\x00\x00\x00\x00\x00\x00\x00\x00\x00\x00\x00\x00\x00\x00\x00\x00\x00\x00\x00\x00\x00\x00\x00\x00\x00\x00\x00\x00\x00\x00\x00\x00\x00\x00\x00\x00\x00\x00\x00\x00\x00\x00\x00\x00\x00\x00\x00\x00\x00\x00\x00\x00\x00\x00\x00\x00\x00\x00\x00\x00\x00\x00\x00\x00\x00\x00\x00\x00\x00\x00\x00\x00\x00\x00\x00\x00\x00\x00\x00\x00\x00\x00\x00\x00\x00\x00\x00\x00\x00\x00\x00\x00\x00\x00\x00\x00\x00\x00\x00\x00\x00\x00\x00\x00\x00\x00\x00\x00\x00\x00\x00\x00\x00\x00\x00\x00\x00\x00\x00\x00\x00\x00\x00\x00\x00\x00\x00\x00\x00\x00\x00\x00\x00\x00\x00\x00\x00\x00\x00\x00\x00\x00\x00\x00\x00\x00\x00\x00\x00\x00\x00\x00\x00\x00\x00\x00\x00\x00\x00\x00\x00\x00\x00\x00\x00\x00\x00\x00\x00\x00\x00\x00\x00\x00\x00\x00\x00\x00\x00\x00\x00\x00\x00\x00\x00\x00\x00\x00\x00\x00\x00\x00\x00\x00\x00\x00\x00\x00\x00\x00\x00\x00\x00\x00\x00\x00\x00\x00\x00\x00\x00\x00\x00\x00\x00\x00\x00\x00\x00\x00\x00\x00\x00\x00\x00\x00\x00\x00\x00\x00\x00\x00\x00\x00\x00\x00\x00\x00\x00\x00\x00\x00\x00\x00\x00\x00\x00\x00\x00\x00\x00\x00\x00\x00\x00\x00\x00\x00\x00\x00\x00\x00\x00\x00\x00\x00\x00\x00\x00\x00\x00\x00\x00\x00\x00\x00\x00\x00\x00\x00\x00\x00\x00\x00\x00\x00\x00\x00\x00\x00\x00\x00\x00\x00\x00\x00\x00\x00\x00\x00\x00\x00\x00\x00\x00\x00\x00\x00\x00\x00\x00\x00\x00\x00\x00\x00\x00\x00'
tbssS'_rhs_to_pcfg_production'
p607
g7
(g8
tRp608
g42
g8
((lp609
g40
atRp610
sg15
g8
((lp611
g12
atRp612
sg27
g8
((lp613
g25
atRp614
sg99
g8
((lp615
g91
atRp616
sg87
g8
((lp617
g79
atRp618
sg54
g8
((lp619
g52
atRp620
sg62
g8
((lp621
g60
atRp622
ssS'_table_relabel_iterations'
p623
I0
sS'_adapted_production_dependents_of_adapted_production'
p624
g7
(g8
tRp625
sS'_non_terminal_to_level'
p626
(dp627
g93
I3
sg56
I3
sg48
I1
sg32
I0
sg36
I2
ssS'_start_symbol'
p628
g32
sS'_non_terminals'
p629
g8
((lp630
g28
ag19
ag43
ag32
ag63
atRp631
sS'_adapted_production_usage_freqdist'
p632
cnltk.probability
FreqDist
p633
((dtRp634
sS'_lhs_to_active_adapted_production'
p635
g7
(g8
tRp636
g32
g8
((lp637
g140
ag340
ag437
ag492
ag409
ag179
ag315
ag462
ag216
ag299
ag186
ag347
ag131
ag283
ag363
ag469
ag223
ag386
ag158
ag255
ag209
ag444
ag241
ag230
ag306
ag147
ag276
ag331
ag423
ag115
ag354
ag372
ag476
ag269
ag393
ag165
ag108
ag416
ag195
ag430
ag202
ag400
ag74
ag172
ag248
ag124
ag455
ag290
ag379
ag485
ag262
ag322
atRp638
ssS'_ranking_statistics_scale'
p639
F22.627416997969519
sS'_nu_1'
p640
(dp641
g504
g513
(g514
(I0
tS'b'
tRp642
(I1
(I1
I52
tg517
I00
S'\x00\x00\x00\x00\x00\x00\xf0?\x00\x00\x00\x00\x00\x00\xf0?\x00\x00\x00\x00\x00\x00\xf0?\x00\x00\x00\x00\x00\x00\xf0?\x00\x00\x00\x00\x00\x00\xf0?\x00\x00\x00\x00\x00\x00\xf0?\x00\x00\x00\x00\x00\x00\xf0?\x00\x00\x00\x00\x00\x00\xf0?\x00\x00\x00\x00\x00\x00\xf0?\x00\x00\x00\x00\x00\x00\xf0?\x00\x00\x00\x00\x00\x00\xf0?\x00\x00\x00\x00\x00\x00\xf0?\x00\x00\x00\x00\x00\x00\xf0?\x00\x00\x00\x00\x00\x00\xf0?\x00\x00\x00\x00\x00\x00\xf0?\x00\x00\x00\x00\x00\x00\xf0?\x00\x00\x00\x00\x00\x00\xf0?\x00\x00\x00\x00\x00\x00\xf0?\x00\x00\x00\x00\x00\x00\xf0?\x00\x00\x00\x00\x00\x00\xf0?\x00\x00\x00\x00\x00\x00\xf0?\x00\x00\x00\x00\x00\x00\xf0?\x00\x00\x00\x00\x00\x00\xf0?\x00\x00\x00\x00\x00\x00\xf0?\x00\x00\x00\x00\x00\x00\xf0?\x00\x00\x00\x00\x00\x00\xf0?\x00\x00\x00\x00\x00\x00\xf0?\x00\x00\x00\x00\x00\x00\xf0?\x00\x00\x00\x00\x00\x00\xf0?\x00\x00\x00\x00\x00\x00\xf0?\x00\x00\x00\x00\x00\x00\xf0?\x00\x00\x00\x00\x00\x00\xf0?\x00\x00\x00\x00\x00\x00\xf0?\x00\x00\x00\x00\x00\x00\xf0?\x00\x00\x00\x00\x00\x00\xf0?\x00\x00\x00\x00\x00\x00\xf0?\x00\x00\x00\x00\x00\x00\xf0?\x00\x00\x00\x00\x00\x00\xf0?\x00\x00\x00\x00\x00\x00\xf0?\x00\x00\x00\x00\x00\x00\xf0?\x00\x00\x00\x00\x00\x00\xf0?\x00\x00\x00\x00\x00\x00\xf0?\x00\x00\x00\x00\x00\x00\xf0?\x00\x00\x00\x00\x00\x00\xf0?\x00\x00\x00\x00\x00\x00\xf0?\x00\x00\x00\x00\x00\x00\xf0?\x00\x00\x00\x00\x00\x00\xf0?\x00\x00\x00\x00\x00\x00\xf0?\x00\x00\x00\x00\x00\x00\xf0?\x00\x00\x00\x00\x00\x00\xf0?\x00\x00\x00\x00\x00\x00\xf0?\x00\x00\x00\x00\x00\x00\xf0?'
tbssS'_counter'
p643
I1
sS'_pcfg_production_to_gamma_index_of_lhs'
p644
g7
(g7
tRp645
g28
g7
(tRp646
g25
I0
ssg19
g7
(tRp647
g12
I0
ssg43
g7
(tRp648
g40
I0
sg79
I1
ssg32
g7
(tRp649
g52
I0
ssg63
g7
(tRp650
g60
I0
sg91
I1
sssS'_pcfg_productions'
p651
g7
(g8
tRp652
(g32
g54
tp653
g8
((lp654
g52
atRp655
s(g100
g99
tp656
g8
((lp657
g91
atRp658
s(g19
g15
tp659
g8
((lp660
g12
atRp661
s(g63
g62
tp662
g8
((lp663
g60
atRp664
s(g88
g87
tp665
g8
((lp666
g79
atRp667
s(g43
g42
tp668
g8
((lp669
g40
atRp670
s(g28
g27
tp671
g8
((lp672
g25
atRp673
ssS'_nu_2'
p674
(dp675
g504
g513
(g514
(I0
tS'b'
tRp676
(I1
(I1
I52
tg517
I00
S'\x00\x00\x00\x00\x00\x00Y@\x00\x00\x00\x00\x00\x00Y@\x00\x00\x00\x00\x00\x00Y@\x00\x00\x00\x00\x00\x00Y@\x00\x00\x00\x00\x00\x00Y@\x00\x00\x00\x00\x00\x00Y@\x00\x00\x00\x00\x00\x00Y@\x00\x00\x00\x00\x00\x00Y@\x00\x00\x00\x00\x00\x00Y@\x00\x00\x00\x00\x00\x00Y@\x00\x00\x00\x00\x00\x00Y@\x00\x00\x00\x00\x00\x00Y@\x00\x00\x00\x00\x00\x00Y@\x00\x00\x00\x00\x00\x00Y@\x00\x00\x00\x00\x00\x00Y@\x00\x00\x00\x00\x00\x00Y@\x00\x00\x00\x00\x00\x00Y@\x00\x00\x00\x00\x00\x00Y@\x00\x00\x00\x00\x00\x00Y@\x00\x00\x00\x00\x00\x00Y@\x00\x00\x00\x00\x00\x00Y@\x00\x00\x00\x00\x00\x00Y@\x00\x00\x00\x00\x00\x00Y@\x00\x00\x00\x00\x00\x00Y@\x00\x00\x00\x00\x00\x00Y@\x00\x00\x00\x00\x00\x00Y@\x00\x00\x00\x00\x00\x00Y@\x00\x00\x00\x00\x00\x00Y@\x00\x00\x00\x00\x00\x00Y@\x00\x00\x00\x00\x00\x00Y@\x00\x00\x00\x00\x00\x00Y@\x00\x00\x00\x00\x00\x00Y@\x00\x00\x00\x00\x00\x00Y@\x00\x00\x00\x00\x00\x00Y@\x00\x00\x00\x00\x00\x00Y@\x00\x00\x00\x00\x00\x00Y@\x00\x00\x00\x00\x00\x00Y@\x00\x00\x00\x00\x00\x00Y@\x00\x00\x00\x00\x00\x00Y@\x00\x00\x00\x00\x00\x00Y@\x00\x00\x00\x00\x00\x00Y@\x00\x00\x00\x00\x00\x00Y@\x00\x00\x00\x00\x00\x00Y@\x00\x00\x00\x00\x00\x00Y@\x00\x00\x00\x00\x00\x00Y@\x00\x00\x00\x00\x00\x00Y@\x00\x00\x00\x00\x00\x00Y@\x00\x00\x00\x00\x00\x00Y@\x00\x00\x00\x00\x00\x00Y@\x00\x00\x00\x00\x00\x00Y@\x00\x00\x00\x00\x00\x00Y@\x00\x00\x00\x00\x00\x00Y@'
tbssS'_beta_pi'
p677
(dp678
g504
F0
ssS'_active_adapted_production_length_of_lhs'
p679
(dp680
g504
g513
(g514
(I0
tS'b'
tRp681
(I1
(I1
I52
tg517
I00
S'\x00\x00\x00\x00\x00\x00\x18@\x00\x00\x00\x00\x00\x00\x00@\x00\x00\x00\x00\x00\x00\x08@\x00\x00\x00\x00\x00\x00\x14@\x00\x00\x00\x00\x00\x00\x08@\x00\x00\x00\x00\x00\x00\x18@\x00\x00\x00\x00\x00\x00\x14@\x00\x00\x00\x00\x00\x00\x1c@\x00\x00\x00\x00\x00\x00\x1c@\x00\x00\x00\x00\x00\x00\x08@\x00\x00\x00\x00\x00\x00\x1c@\x00\x00\x00\x00\x00\x00\x00@\x00\x00\x00\x00\x00\x00\x14@\x00\x00\x00\x00\x00\x00\x10@\x00\x00\x00\x00\x00\x00\x10@\x00\x00\x00\x00\x00\x00\x18@\x00\x00\x00\x00\x00\x00\x18@\x00\x00\x00\x00\x00\x00\x18@\x00\x00\x00\x00\x00\x00\x1c@\x00\x00\x00\x00\x00\x00\x10@\x00\x00\x00\x00\x00\x00\x14@\x00\x00\x00\x00\x00\x00\x1c@\x00\x00\x00\x00\x00\x00\x1c@\x00\x00\x00\x00\x00\x00\x1c@\x00\x00\x00\x00\x00\x00\x10@\x00\x00\x00\x00\x00\x00\x1c@\x00\x00\x00\x00\x00\x00\x1c@\x00\x00\x00\x00\x00\x00\x14@\x00\x00\x00\x00\x00\x00\x14@\x00\x00\x00\x00\x00\x00\x14@\x00\x00\x00\x00\x00\x00\x1c@\x00\x00\x00\x00\x00\x00\x10@\x00\x00\x00\x00\x00\x00\x18@\x00\x00\x00\x00\x00\x00\x18@\x00\x00\x00\x00\x00\x00\x18@\x00\x00\x00\x00\x00\x00\x1c@\x00\x00\x00\x00\x00\x00\x18@\x00\x00\x00\x00\x00\x00\x1c@\x00\x00\x00\x00\x00\x00\x1c@\x00\x00\x00\x00\x00\x00\x1c@\x00\x00\x00\x00\x00\x00\x18@\x00\x00\x00\x00\x00\x00\x14@\x00\x00\x00\x00\x00\x00\x1c@\x00\x00\x00\x00\x00\x00\x18@\x00\x00\x00\x00\x00\x00\x1c@\x00\x00\x00\x00\x00\x00\x18@\x00\x00\x00\x00\x00\x00\x18@\x00\x00\x00\x00\x00\x00\x1c@\x00\x00\x00\x00\x00\x00\x1c@\x00\x00\x00\x00\x00\x00\x1c@\x00\x00\x00\x00\x00\x00\x1c@\x00\x00\x00\x00\x00\x00\x1c@'
tbssS'_epsilon'
p682
F0.043683254068210421
sS'_terminals'
p683
g8
((lp684
VA
aVB
atRp685
sS'_adapted_production_sufficient_statistics_of_lhs'
p686
g7
(g633
tRp687
sS'_rhs_to_active_adapted_production'
p688
g7
(g8
tRp689
(S'B'
S'A'
S'B'
S'A'
S'A'
S'A'
tp690
g8
((lp691
g492
atRp692
s(S'A'
S'A'
S'A'
S'B'
S'A'
S'A'
tp693
g8
((lp694
g158
atRp695
s(S'A'
S'B'
S'A'
S'A'
tp696
g8
((lp697
g423
atRp698
s(S'A'
S'A'
S'A'
S'B'
S'A'
S'B'
S'A'
tp699
g8
((lp700
g124
atRp701
s(S'B'
S'A'
S'A'
S'B'
S'A'
tp702
g8
((lp703
g241
atRp704
s(S'A'
S'B'
S'A'
tp705
g8
((lp706
g209
atRp707
s(S'A'
S'B'
S'A'
S'B'
S'A'
S'B'
S'A'
tp708
g8
((lp709
g74
atRp710
s(S'A'
S'B'
S'A'
S'B'
S'A'
S'A'
tp711
g8
((lp712
g179
atRp713
s(S'B'
S'A'
S'A'
S'B'
S'A'
S'B'
S'A'
tp714
g8
((lp715
g340
atRp716
s(S'A'
S'B'
S'A'
S'B'
S'A'
tp717
g8
((lp718
g216
atRp719
s(S'B'
S'A'
S'B'
S'A'
S'B'
S'A'
S'A'
tp720
g8
((lp721
g306
atRp722
s(S'A'
S'A'
S'A'
tp723
g8
((lp724
g400
atRp725
s(S'A'
S'A'
S'B'
S'A'
S'A'
tp726
g8
((lp727
g165
atRp728
s(S'A'
S'B'
S'A'
S'A'
S'A'
tp729
g8
((lp730
g347
atRp731
s(S'B'
S'A'
S'A'
S'A'
S'A'
S'A'
tp732
g8
((lp733
g469
atRp734
s(S'A'
S'B'
S'A'
S'A'
S'B'
S'A'
S'A'
tp735
g8
((lp736
g255
atRp737
s(S'A'
S'B'
S'A'
S'B'
S'A'
S'A'
S'A'
tp738
g8
((lp739
g363
atRp740
s(S'B'
S'A'
S'A'
S'A'
S'A'
S'A'
S'A'
tp741
g8
((lp742
g476
atRp743
s(S'A'
S'A'
S'B'
S'A'
S'B'
S'A'
S'A'
tp744
g8
((lp745
g262
atRp746
s(S'A'
S'A'
S'B'
S'A'
S'B'
S'A'
tp747
g8
((lp748
g409
atRp749
s(S'A'
S'A'
S'A'
S'A'
S'A'
S'A'
S'A'
tp750
g8
((lp751
g437
atRp752
s(S'B'
S'A'
S'A'
S'B'
S'A'
S'A'
tp753
g8
((lp754
g331
atRp755
s(S'B'
S'A'
tp756
g8
((lp757
g299
atRp758
s(S'B'
S'A'
S'A'
tp759
g8
((lp760
g195
atRp761
s(S'B'
S'A'
S'B'
S'A'
S'A'
S'B'
S'A'
tp762
g8
((lp763
g485
atRp764
s(S'A'
S'A'
S'A'
S'A'
S'B'
S'A'
S'A'
tp765
g8
((lp766
g276
atRp767
s(S'A'
S'A'
S'A'
S'A'
S'B'
S'A'
tp768
g8
((lp769
g354
atRp770
s(S'B'
S'A'
S'A'
S'A'
S'B'
S'A'
tp771
g8
((lp772
g108
atRp773
s(S'B'
S'A'
S'A'
S'A'
S'A'
tp774
g8
((lp775
g386
atRp776
s(S'A'
S'A'
tp777
g8
((lp778
g462
atRp779
s(S'A'
S'A'
S'B'
S'A'
S'A'
S'A'
S'A'
tp780
g8
((lp781
g393
atRp782
s(S'B'
S'A'
S'A'
S'B'
S'A'
S'A'
S'A'
tp783
g8
((lp784
g140
atRp785
s(S'A'
S'B'
S'A'
S'A'
S'A'
S'A'
tp786
g8
((lp787
g283
atRp788
s(S'B'
S'A'
S'B'
S'A'
S'A'
tp789
g8
((lp790
g372
atRp791
s(S'A'
S'A'
S'A'
S'A'
S'A'
S'B'
S'A'
tp792
g8
((lp793
g315
atRp794
s(S'A'
S'A'
S'A'
S'A'
S'A'
tp795
g8
((lp796
g202
atRp797
s(S'A'
S'A'
S'A'
S'A'
S'A'
S'A'
tp798
g8
((lp799
g147
atRp800
s(S'B'
S'A'
S'A'
S'A'
S'A'
S'B'
S'A'
tp801
g8
((lp802
g455
atRp803
s(S'A'
S'B'
S'A'
S'A'
S'A'
S'A'
S'A'
tp804
g8
((lp805
g248
atRp806
s(S'B'
S'A'
S'B'
S'A'
S'B'
S'A'
tp807
g8
((lp808
g444
atRp809
s(S'A'
S'B'
S'A'
S'A'
S'A'
S'B'
S'A'
tp810
g8
((lp811
g416
atRp812
s(S'A'
S'A'
S'B'
S'A'
S'A'
S'B'
S'A'
tp813
g8
((lp814
g379
atRp815
s(S'B'
S'A'
S'B'
S'A'
tp816
g8
((lp817
g172
atRp818
s(S'A'
S'A'
S'B'
S'A'
tp819
g8
((lp820
g131
atRp821
s(S'B'
S'A'
S'A'
S'A'
tp822
g8
((lp823
g290
atRp824
s(S'A'
S'A'
S'A'
S'B'
S'A'
S'A'
S'A'
tp825
g8
((lp826
g223
atRp827
s(S'B'
S'A'
S'B'
S'A'
S'A'
S'A'
S'A'
tp828
g8
((lp829
g269
atRp830
s(S'A'
S'B'
S'A'
S'A'
S'B'
S'A'
tp831
g8
((lp832
g322
atRp833
s(S'A'
S'A'
S'A'
S'A'
tp834
g8
((lp835
g115
atRp836
s(S'A'
S'A'
S'A'
S'B'
S'A'
tp837
g8
((lp838
g186
atRp839
s(S'A'
S'A'
S'B'
S'A'
S'A'
S'A'
tp840
g8
((lp841
g230
atRp842
s(S'B'
S'A'
S'A'
S'A'
S'B'
S'A'
S'A'
tp843
g8
((lp844
g430
atRp845
ssS'_tau'
p846
F64
sS'_number_of_productions'
p847
I0
sb.